
moggeen.elf:     file format elf32-littlearm


Disassembly of section .text:

10001600 <ram>:
10001600:	b570      	push	{r4, r5, r6, lr}
10001602:	4c3b      	ldr	r4, [pc, #236]	; (100016f0 <ram+0xf0>)
10001604:	2100      	movs	r1, #0
10001606:	f8d4 3128 	ldr.w	r3, [r4, #296]	; 0x128
1000160a:	f44f 7292 	mov.w	r2, #292	; 0x124
1000160e:	4839      	ldr	r0, [pc, #228]	; (100016f4 <ram+0xf4>)
10001610:	4798      	blx	r3
10001612:	4b38      	ldr	r3, [pc, #224]	; (100016f4 <ram+0xf4>)
10001614:	4a38      	ldr	r2, [pc, #224]	; (100016f8 <ram+0xf8>)
10001616:	f8d3 10e4 	ldr.w	r1, [r3, #228]	; 0xe4
1000161a:	2002      	movs	r0, #2
1000161c:	6011      	str	r1, [r2, #0]
1000161e:	4a37      	ldr	r2, [pc, #220]	; (100016fc <ram+0xfc>)
10001620:	2108      	movs	r1, #8
10001622:	f8c3 20e4 	str.w	r2, [r3, #228]	; 0xe4
10001626:	4a36      	ldr	r2, [pc, #216]	; (10001700 <ram+0x100>)
10001628:	4626      	mov	r6, r4
1000162a:	6093      	str	r3, [r2, #8]
1000162c:	f8d4 30f8 	ldr.w	r3, [r4, #248]	; 0xf8
10001630:	2201      	movs	r2, #1
10001632:	4798      	blx	r3
10001634:	4b33      	ldr	r3, [pc, #204]	; (10001704 <ram+0x104>)
10001636:	681a      	ldr	r2, [r3, #0]
10001638:	f042 0280 	orr.w	r2, r2, #128	; 0x80
1000163c:	601a      	str	r2, [r3, #0]
1000163e:	4b32      	ldr	r3, [pc, #200]	; (10001708 <ram+0x108>)
10001640:	222c      	movs	r2, #44	; 0x2c
10001642:	601a      	str	r2, [r3, #0]
10001644:	3a23      	subs	r2, #35	; 0x23
10001646:	60da      	str	r2, [r3, #12]
10001648:	3a06      	subs	r2, #6
1000164a:	609a      	str	r2, [r3, #8]
1000164c:	3a02      	subs	r2, #2
1000164e:	f843 2c08 	str.w	r2, [r3, #-8]
10001652:	4b2e      	ldr	r3, [pc, #184]	; (1000170c <ram+0x10c>)
10001654:	f44f 7200 	mov.w	r2, #512	; 0x200
10001658:	605a      	str	r2, [r3, #4]
1000165a:	e027      	b.n	100016ac <ram+0xac>
1000165c:	2c01      	cmp	r4, #1
1000165e:	d111      	bne.n	10001684 <ram+0x84>
10001660:	f8d5 30fc 	ldr.w	r3, [r5, #252]	; 0xfc
10001664:	2000      	movs	r0, #0
10001666:	210b      	movs	r1, #11
10001668:	4622      	mov	r2, r4
1000166a:	4798      	blx	r3
1000166c:	f8d5 30fc 	ldr.w	r3, [r5, #252]	; 0xfc
10001670:	4620      	mov	r0, r4
10001672:	2107      	movs	r1, #7
10001674:	4622      	mov	r2, r4
10001676:	4798      	blx	r3
10001678:	f8d5 30fc 	ldr.w	r3, [r5, #252]	; 0xfc
1000167c:	4620      	mov	r0, r4
1000167e:	2106      	movs	r1, #6
10001680:	4622      	mov	r2, r4
10001682:	e012      	b.n	100016aa <ram+0xaa>
10001684:	2c02      	cmp	r4, #2
10001686:	d111      	bne.n	100016ac <ram+0xac>
10001688:	2000      	movs	r0, #0
1000168a:	4602      	mov	r2, r0
1000168c:	f8d5 30fc 	ldr.w	r3, [r5, #252]	; 0xfc
10001690:	210b      	movs	r1, #11
10001692:	4798      	blx	r3
10001694:	f8d5 30fc 	ldr.w	r3, [r5, #252]	; 0xfc
10001698:	2001      	movs	r0, #1
1000169a:	2107      	movs	r1, #7
1000169c:	2200      	movs	r2, #0
1000169e:	4798      	blx	r3
100016a0:	f8d5 30fc 	ldr.w	r3, [r5, #252]	; 0xfc
100016a4:	2001      	movs	r0, #1
100016a6:	2106      	movs	r1, #6
100016a8:	2200      	movs	r2, #0
100016aa:	4798      	blx	r3
100016ac:	6eb3      	ldr	r3, [r6, #104]	; 0x68
100016ae:	4798      	blx	r3
100016b0:	2810      	cmp	r0, #16
100016b2:	4d0f      	ldr	r5, [pc, #60]	; (100016f0 <ram+0xf0>)
100016b4:	4604      	mov	r4, r0
100016b6:	d1d1      	bne.n	1000165c <ram+0x5c>
100016b8:	4b14      	ldr	r3, [pc, #80]	; (1000170c <ram+0x10c>)
100016ba:	f44f 7200 	mov.w	r2, #512	; 0x200
100016be:	f8c3 2084 	str.w	r2, [r3, #132]	; 0x84
100016c2:	4b13      	ldr	r3, [pc, #76]	; (10001710 <ram+0x110>)
100016c4:	681a      	ldr	r2, [r3, #0]
100016c6:	f022 0201 	bic.w	r2, r2, #1
100016ca:	601a      	str	r2, [r3, #0]
100016cc:	681a      	ldr	r2, [r3, #0]
100016ce:	f042 0202 	orr.w	r2, r2, #2
100016d2:	601a      	str	r2, [r3, #0]
100016d4:	4a0f      	ldr	r2, [pc, #60]	; (10001714 <ram+0x114>)
100016d6:	6811      	ldr	r1, [r2, #0]
100016d8:	f021 0103 	bic.w	r1, r1, #3
100016dc:	6011      	str	r1, [r2, #0]
100016de:	681a      	ldr	r2, [r3, #0]
100016e0:	f022 0202 	bic.w	r2, r2, #2
100016e4:	601a      	str	r2, [r3, #0]
100016e6:	4b06      	ldr	r3, [pc, #24]	; (10001700 <ram+0x100>)
100016e8:	2200      	movs	r2, #0
100016ea:	609a      	str	r2, [r3, #8]
100016ec:	bd70      	pop	{r4, r5, r6, pc}
100016ee:	bf00      	nop
100016f0:	00000124 	.word	0x00000124
100016f4:	10001c00 	.word	0x10001c00
100016f8:	10001800 	.word	0x10001800
100016fc:	10001719 	.word	0x10001719
10001700:	e000ed00 	.word	0xe000ed00
10001704:	40048080 	.word	0x40048080
10001708:	4000c00c 	.word	0x4000c00c
1000170c:	e000e100 	.word	0xe000e100
10001710:	4000c004 	.word	0x4000c004
10001714:	4000c014 	.word	0x4000c014

10001718 <tmr16_0_irqh>:
10001718:	4b05      	ldr	r3, [pc, #20]	; (10001730 <tmr16_0_irqh+0x18>)
1000171a:	681a      	ldr	r2, [r3, #0]
1000171c:	f042 0201 	orr.w	r2, r2, #1
10001720:	601a      	str	r2, [r3, #0]
10001722:	4b04      	ldr	r3, [pc, #16]	; (10001734 <tmr16_0_irqh+0x1c>)
10001724:	f44f 7280 	mov.w	r2, #256	; 0x100
10001728:	601a      	str	r2, [r3, #0]
1000172a:	2200      	movs	r2, #0
1000172c:	601a      	str	r2, [r3, #0]
1000172e:	4770      	bx	lr
10001730:	4000c000 	.word	0x4000c000
10001734:	50020400 	.word	0x50020400
