
diagnostics.elf:     file format elf32-littlearm


Disassembly of section .text:

00000000 <vectors>:
       0:	f0 15 00 10 a5 03 00 00 a1 03 00 00 a1 03 00 00     ................
      10:	a1 03 00 00 a1 03 00 00 a1 03 00 00 00 00 00 00     ................
	...
      2c:	a1 03 00 00 a1 03 00 00 00 00 00 00 a1 03 00 00     ................
      3c:	f1 5c 00 00 99 5a 00 00 99 5a 00 00 99 5a 00 00     .\...Z...Z...Z..
      4c:	99 5a 00 00 99 5a 00 00 99 5a 00 00 99 5a 00 00     .Z...Z...Z...Z..
      5c:	99 5a 00 00 99 5a 00 00 99 5a 00 00 99 5a 00 00     .Z...Z...Z...Z..
      6c:	99 5a 00 00 99 5a 00 00 99 5a 00 00 99 5a 00 00     .Z...Z...Z...Z..
      7c:	99 5a 00 00 99 5a 00 00 99 5a 00 00 99 5a 00 00     .Z...Z...Z...Z..
      8c:	99 5a 00 00 99 5a 00 00 99 5a 00 00 99 5a 00 00     .Z...Z...Z...Z..
      9c:	99 5a 00 00 99 5a 00 00 99 5a 00 00 99 5a 00 00     .Z...Z...Z...Z..
      ac:	99 5a 00 00 99 5a 00 00 99 5a 00 00 99 5a 00 00     .Z...Z...Z...Z..
      bc:	99 5a 00 00 99 5a 00 00 99 5a 00 00 99 5a 00 00     .Z...Z...Z...Z..
      cc:	99 5a 00 00 99 5a 00 00 99 5a 00 00 99 5a 00 00     .Z...Z...Z...Z..
      dc:	99 5a 00 00 29 57 00 00 39 06 00 00 9f 03 00 00     .Z..)W..9.......
      ec:	71 5d 00 00 99 5d 00 00 09 5b 00 00 9f 03 00 00     q]...]...[......
      fc:	81 5f 00 00 9f 03 00 00 9f 03 00 00 9f 03 00 00     ._..............
     10c:	9f 03 00 00 9f 03 00 00 eb 25 00 00 9f 03 00 00     .........%......
     11c:	9f 03 00 00 9f 03 00 00                             ........

00000124 <TheTable>:
     124:	b1 44 00 00 51 49 00 00 e5 49 00 00 f1 48 00 00     .D..QI...I...H..
     134:	09 39 00 00 c1 39 00 00 60 65 00 00 54 03 00 10     .9...9..`e..T...
     144:	b9 43 00 00 89 43 00 00 d4 07 00 10 71 4c 00 00     .C...C......qL..
     154:	3d 40 00 00 79 3f 00 00 e9 3f 00 00 c5 4c 00 00     =@..y?...?...L..
     164:	29 4c 00 00 e5 4b 00 00 4d 4c 00 00 09 26 00 00     )L...K..ML...&..
     174:	61 4c 00 00 3d 40 00 00 89 3f 00 00 f5 42 00 00     aL..=@...?...B..
     184:	d5 4c 00 00 39 28 00 00 e9 27 00 00 55 28 00 00     .L..9(...'..U(..
     194:	49 29 00 00 71 28 00 00 6d 2c 00 00 9b 2b 00 00     I)..q(..m,...+..
     1a4:	8d 35 00 00 fd 34 00 00 db 34 00 00 29 1a 00 00     .5...4...4..)...
     1b4:	09 26 00 00 37 1a 00 00 ad 14 00 00 73 16 00 00     .&..7.......s...
     1c4:	cb 17 00 00 ce 02 00 10 61 0b 00 00 59 0a 00 00     ........a...Y...
     1d4:	a9 08 00 00 6d 08 00 00 d3 07 00 00 c7 08 00 00     ....m...........
     1e4:	eb 06 00 00 07 0a 00 00 71 26 00 00 75 37 00 00     ........q&..u7..
     1f4:	2d 37 00 00 a9 37 00 00 58 07 00 10 0d 37 00 00     -7...7..X....7..
     204:	25 21 00 00 21 22 00 00 5b 21 00 00 f1 37 00 00     %!..!"..[!...7..
     214:	10 02 00 10 b5 55 00 00 69 55 00 00 09 56 00 00     .....U..iU...V..
     224:	85 5c 00 00 4d 5c 00 00 b5 5c 00 00 85 0b 00 00     .\..M\...\......
     234:	a4 03 00 10 d1 02 00 10 cf 02 00 10 d0 02 00 10     ................
     244:	6f 5a 00 00 5f 5a 00 00 0f 5a 00 00 cd 59 00 00     oZ.._Z...Z...Y..
     254:	d1 27 00 00 c9 29 00 00 21 27 00 00 dd 27 00 00     .'...)..!'...'..
     264:	ec 02 00 10 d5 29 00 00 85 36 00 00 bd 3c 00 00     .....)...6...<..
     274:	a5 59 00 00 c9 39 00 00 09 2a 00 00 e8 02 00 10     .Y...9...*......
     284:	d1 3b 00 00 a0 07 00 10 b0 02 00 10 4d 5d 00 00     .;..........M]..
     294:	0f 36 00 00 23 36 00 00 ba 0d 00 10 b4 0d 00 10     .6..#6..........
     2a4:	c0 0d 00 10 b0 0d 00 10 29 59 00 00 a5 58 00 00     ........)Y...X..
     2b4:	ec 0d 00 10 7d 3d 00 00 ad 3e 00 00 89 4c 00 00     ....}=...>...L..
     2c4:	9d 4c 00 00 ad 28 00 00 75 38 00 00 05 60 00 00     .L...(..u8...`..
     2d4:	3d 60 00 00 79 60 00 00 99 60 00 00 a9 60 00 00     =`..y`...`...`..
     2e4:	99 4f 00 00 89 4f 00 00 d5 4f 00 00 e1 4f 00 00     .O...O...O...O..
     2f4:	ed 4f 00 00 79 52 00 00 75 4f 00 00 21 50 00 00     .O..yR..uO..!P..
     304:	65 4f 00 00 55 4f 00 00 b1 4e 00 00 99 03 00 00     eO..UO...N......
     314:	cf 0a 00 00 fb 07 00 00 59 06 00 00 ad 06 00 00     ........Y.......
     324:	ab 09 00 00                                         ....

00000328 <main>:
     328:	b510      	push	{r4, lr}
     32a:	f005 f8cb 	bl	54c4 <cpuInit>
     32e:	f005 fbe3 	bl	5af8 <pmuInit>
     332:	f004 ffc1 	bl	52b8 <adcInit>
     336:	f002 f8a9 	bl	248c <rbInit>
     33a:	f002 fb13 	bl	2964 <initUUID>
     33e:	f003 fdb5 	bl	3eac <lcdInit>
     342:	2000      	movs	r0, #0
     344:	f003 fe18 	bl	3f78 <lcdFill>
     348:	f003 fe78 	bl	403c <lcdDisplay>
     34c:	f002 fa4c 	bl	27e8 <getInputRaw>
     350:	2802      	cmp	r0, #2
     352:	d009      	beq.n	368 <main+0x40>
     354:	2810      	cmp	r0, #16
     356:	d10f      	bne.n	378 <main+0x50>
     358:	480d      	ldr	r0, [pc, #52]	; (390 <main+0x68>)
     35a:	f004 fc43 	bl	4be4 <lcdPrint>
     35e:	f003 fe6d 	bl	403c <lcdDisplay>
     362:	f002 f953 	bl	260c <ReinvokeISP>
     366:	e007      	b.n	378 <main+0x50>
     368:	480a      	ldr	r0, [pc, #40]	; (394 <main+0x6c>)
     36a:	f004 fc3b 	bl	4be4 <lcdPrint>
     36e:	f003 fe65 	bl	403c <lcdDisplay>
     372:	f005 fd67 	bl	5e44 <usbMSCInit>
     376:	e7fe      	b.n	376 <main+0x4e>
     378:	f001 fe5c 	bl	2034 <fsInit>
     37c:	f002 fa34 	bl	27e8 <getInputRaw>
     380:	2801      	cmp	r0, #1
     382:	d101      	bne.n	388 <main+0x60>
     384:	f003 fa34 	bl	37f0 <saveConfig>
     388:	e8bd 4010 	ldmia.w	sp!, {r4, lr}
     38c:	f000 b82a 	b.w	3e4 <wrapper>
     390:	000060b8 	.word	0x000060b8
     394:	000060c3 	.word	0x000060c3

00000398 <getrelease>:
     398:	f240 1011 	movw	r0, #273	; 0x111
     39c:	4770      	bx	lr

0000039e <irq_undefined>:
     39e:	e7fe      	b.n	39e <irq_undefined>

000003a0 <fault_undefined>:
     3a0:	e7fe      	b.n	3a0 <fault_undefined>
	...

000003a4 <boot_entry>:
     3a4:	b508      	push	{r3, lr}
     3a6:	4a0a      	ldr	r2, [pc, #40]	; (3d0 <boot_entry+0x2c>)
     3a8:	4b0a      	ldr	r3, [pc, #40]	; (3d4 <boot_entry+0x30>)
     3aa:	e003      	b.n	3b4 <boot_entry+0x10>
     3ac:	f812 1b01 	ldrb.w	r1, [r2], #1
     3b0:	f803 1b01 	strb.w	r1, [r3], #1
     3b4:	4908      	ldr	r1, [pc, #32]	; (3d8 <boot_entry+0x34>)
     3b6:	428b      	cmp	r3, r1
     3b8:	d3f8      	bcc.n	3ac <boot_entry+0x8>
     3ba:	4b08      	ldr	r3, [pc, #32]	; (3dc <boot_entry+0x38>)
     3bc:	e002      	b.n	3c4 <boot_entry+0x20>
     3be:	2200      	movs	r2, #0
     3c0:	f803 2b01 	strb.w	r2, [r3], #1
     3c4:	4a06      	ldr	r2, [pc, #24]	; (3e0 <boot_entry+0x3c>)
     3c6:	4293      	cmp	r3, r2
     3c8:	d3f9      	bcc.n	3be <boot_entry+0x1a>
     3ca:	f7ff ffad 	bl	328 <main>
     3ce:	e7fe      	b.n	3ce <boot_entry+0x2a>
     3d0:	0000661d 	.word	0x0000661d
     3d4:	10000180 	.word	0x10000180
     3d8:	100002c8 	.word	0x100002c8
     3dc:	100002c8 	.word	0x100002c8
     3e0:	10000e1f 	.word	0x10000e1f

000003e4 <wrapper>:
     3e4:	b510      	push	{r4, lr}
     3e6:	f000 f80d 	bl	404 <main_default>
     3ea:	e8bd 4010 	ldmia.w	sp!, {r4, lr}
     3ee:	f000 b903 	b.w	5f8 <main_diagnostics>

000003f2 <tick_wrapper>:
     3f2:	f000 b829 	b.w	448 <tick_default>

000003f6 <queue_setinvert>:
     3f6:	2001      	movs	r0, #1
     3f8:	f003 beaa 	b.w	4150 <lcdSetInvert>

000003fc <queue_unsetinvert>:
     3fc:	2000      	movs	r0, #0
     3fe:	f003 bea7 	b.w	4150 <lcdSetInvert>
	...

00000404 <main_default>:
     404:	b510      	push	{r4, lr}
     406:	200a      	movs	r0, #10
     408:	f005 fc84 	bl	5d14 <systickInit>
     40c:	f004 fc30 	bl	4c70 <lcdClear>
     410:	480b      	ldr	r0, [pc, #44]	; (440 <main_default+0x3c>)
     412:	f004 fc57 	bl	4cc4 <lcdLoadImage>
     416:	f003 fe11 	bl	403c <lcdDisplay>
     41a:	f004 fc29 	bl	4c70 <lcdClear>
     41e:	f003 fa43 	bl	38a8 <readConfig>
     422:	f002 f9e1 	bl	27e8 <getInputRaw>
     426:	2808      	cmp	r0, #8
     428:	d105      	bne.n	436 <main_default+0x32>
     42a:	4b06      	ldr	r3, [pc, #24]	; (444 <main_default+0x40>)
     42c:	2201      	movs	r2, #1
     42e:	f883 2054 	strb.w	r2, [r3, #84]	; 0x54
     432:	f003 fa1f 	bl	3874 <applyConfig>
     436:	e8bd 4010 	ldmia.w	sp!, {r4, lr}
     43a:	f003 b8ff 	b.w	363c <randomInit>
     43e:	bf00      	nop
     440:	000060ce 	.word	0x000060ce
     444:	10000210 	.word	0x10000210

00000448 <tick_default>:
     448:	4960      	ldr	r1, [pc, #384]	; (5cc <tick_default+0x184>)
     44a:	e92d 41f0 	stmdb	sp!, {r4, r5, r6, r7, r8, lr}
     44e:	4c60      	ldr	r4, [pc, #384]	; (5d0 <tick_default+0x188>)
     450:	6808      	ldr	r0, [r1, #0]
     452:	6822      	ldr	r2, [r4, #0]
     454:	3001      	adds	r0, #1
     456:	1c53      	adds	r3, r2, #1
     458:	6008      	str	r0, [r1, #0]
     45a:	2166      	movs	r1, #102	; 0x66
     45c:	fb93 f0f1 	sdiv	r0, r3, r1
     460:	6023      	str	r3, [r4, #0]
     462:	fb01 3310 	mls	r3, r1, r0, r3
     466:	b943      	cbnz	r3, 47a <tick_default+0x32>
     468:	4b5a      	ldr	r3, [pc, #360]	; (5d4 <tick_default+0x18c>)
     46a:	781b      	ldrb	r3, [r3, #0]
     46c:	b923      	cbnz	r3, 478 <tick_default+0x30>
     46e:	f002 f909 	bl	2684 <VoltageCheck>
     472:	f002 f965 	bl	2740 <LightCheck>
     476:	e000      	b.n	47a <tick_default+0x32>
     478:	6022      	str	r2, [r4, #0]
     47a:	6827      	ldr	r7, [r4, #0]
     47c:	230c      	movs	r3, #12
     47e:	3702      	adds	r7, #2
     480:	fb97 f2f3 	sdiv	r2, r7, r3
     484:	fb03 7712 	mls	r7, r3, r2, r7
     488:	2f00      	cmp	r7, #0
     48a:	d13d      	bne.n	508 <tick_default+0xc0>
     48c:	f002 f9a6 	bl	27dc <isNight>
     490:	4d51      	ldr	r5, [pc, #324]	; (5d8 <tick_default+0x190>)
     492:	4606      	mov	r6, r0
     494:	b1b0      	cbz	r0, 4c4 <tick_default+0x7c>
     496:	4b51      	ldr	r3, [pc, #324]	; (5dc <tick_default+0x194>)
     498:	f893 6094 	ldrb.w	r6, [r3, #148]	; 0x94
     49c:	b166      	cbz	r6, 4b8 <tick_default+0x70>
     49e:	4638      	mov	r0, r7
     4a0:	210b      	movs	r1, #11
     4a2:	2201      	movs	r2, #1
     4a4:	f005 f8b0 	bl	5608 <gpioSetValue>
     4a8:	2001      	movs	r0, #1
     4aa:	2106      	movs	r1, #6
     4ac:	4602      	mov	r2, r0
     4ae:	f005 f8ab 	bl	5608 <gpioSetValue>
     4b2:	2301      	movs	r3, #1
     4b4:	702b      	strb	r3, [r5, #0]
     4b6:	e011      	b.n	4dc <tick_default+0x94>
     4b8:	782b      	ldrb	r3, [r5, #0]
     4ba:	b17b      	cbz	r3, 4dc <tick_default+0x94>
     4bc:	4630      	mov	r0, r6
     4be:	210b      	movs	r1, #11
     4c0:	4632      	mov	r2, r6
     4c2:	e004      	b.n	4ce <tick_default+0x86>
     4c4:	782b      	ldrb	r3, [r5, #0]
     4c6:	b14b      	cbz	r3, 4dc <tick_default+0x94>
     4c8:	7028      	strb	r0, [r5, #0]
     4ca:	210b      	movs	r1, #11
     4cc:	4602      	mov	r2, r0
     4ce:	f005 f89b 	bl	5608 <gpioSetValue>
     4d2:	2001      	movs	r0, #1
     4d4:	2106      	movs	r1, #6
     4d6:	4632      	mov	r2, r6
     4d8:	f005 f896 	bl	5608 <gpioSetValue>
     4dc:	4d40      	ldr	r5, [pc, #256]	; (5e0 <tick_default+0x198>)
     4de:	782e      	ldrb	r6, [r5, #0]
     4e0:	f002 f97c 	bl	27dc <isNight>
     4e4:	4286      	cmp	r6, r0
     4e6:	d00f      	beq.n	508 <tick_default+0xc0>
     4e8:	f002 f978 	bl	27dc <isNight>
     4ec:	7028      	strb	r0, [r5, #0]
     4ee:	b130      	cbz	r0, 4fe <tick_default+0xb6>
     4f0:	4b3a      	ldr	r3, [pc, #232]	; (5dc <tick_default+0x194>)
     4f2:	f893 002c 	ldrb.w	r0, [r3, #44]	; 0x2c
     4f6:	f001 ff9d 	bl	2434 <backlightSetBrightness>
     4fa:	483a      	ldr	r0, [pc, #232]	; (5e4 <tick_default+0x19c>)
     4fc:	e002      	b.n	504 <tick_default+0xbc>
     4fe:	f001 ff99 	bl	2434 <backlightSetBrightness>
     502:	4839      	ldr	r0, [pc, #228]	; (5e8 <tick_default+0x1a0>)
     504:	f003 f950 	bl	37a8 <push_queue>
     508:	6823      	ldr	r3, [r4, #0]
     50a:	2205      	movs	r2, #5
     50c:	fb93 f2f2 	sdiv	r2, r3, r2
     510:	eb02 0282 	add.w	r2, r2, r2, lsl #2
     514:	4293      	cmp	r3, r2
     516:	d149      	bne.n	5ac <tick_default+0x164>
     518:	4b30      	ldr	r3, [pc, #192]	; (5dc <tick_default+0x194>)
     51a:	f893 308c 	ldrb.w	r3, [r3, #140]	; 0x8c
     51e:	b32b      	cbz	r3, 56c <tick_default+0x124>
     520:	4b32      	ldr	r3, [pc, #200]	; (5ec <tick_default+0x1a4>)
     522:	681e      	ldr	r6, [r3, #0]
     524:	f002 f902 	bl	272c <GetChrgStat>
     528:	f3c6 26c0 	ubfx	r6, r6, #11, #1
     52c:	4605      	mov	r5, r0
     52e:	b168      	cbz	r0, 54c <tick_default+0x104>
     530:	b9e6      	cbnz	r6, 56c <tick_default+0x124>
     532:	4b2f      	ldr	r3, [pc, #188]	; (5f0 <tick_default+0x1a8>)
     534:	2001      	movs	r0, #1
     536:	210b      	movs	r1, #11
     538:	4602      	mov	r2, r0
     53a:	601e      	str	r6, [r3, #0]
     53c:	f005 f814 	bl	5568 <gpioSetDir>
     540:	2001      	movs	r0, #1
     542:	210b      	movs	r1, #11
     544:	4602      	mov	r2, r0
     546:	f005 f85f 	bl	5608 <gpioSetValue>
     54a:	e00d      	b.n	568 <tick_default+0x120>
     54c:	b176      	cbz	r6, 56c <tick_default+0x124>
     54e:	2001      	movs	r0, #1
     550:	210b      	movs	r1, #11
     552:	462a      	mov	r2, r5
     554:	f005 f858 	bl	5608 <gpioSetValue>
     558:	462a      	mov	r2, r5
     55a:	2001      	movs	r0, #1
     55c:	210b      	movs	r1, #11
     55e:	f005 f803 	bl	5568 <gpioSetDir>
     562:	4b23      	ldr	r3, [pc, #140]	; (5f0 <tick_default+0x1a8>)
     564:	2241      	movs	r2, #65	; 0x41
     566:	601a      	str	r2, [r3, #0]
     568:	f002 f8ea 	bl	2740 <LightCheck>
     56c:	f002 f8d8 	bl	2720 <GetVoltage>
     570:	f5b0 6f61 	cmp.w	r0, #3600	; 0xe10
     574:	d21a      	bcs.n	5ac <tick_default+0x164>
     576:	4b1e      	ldr	r3, [pc, #120]	; (5f0 <tick_default+0x1a8>)
     578:	2001      	movs	r0, #1
     57a:	2500      	movs	r5, #0
     57c:	4602      	mov	r2, r0
     57e:	601d      	str	r5, [r3, #0]
     580:	210b      	movs	r1, #11
     582:	f004 fff1 	bl	5568 <gpioSetDir>
     586:	6820      	ldr	r0, [r4, #0]
     588:	2305      	movs	r3, #5
     58a:	fb90 f0f3 	sdiv	r0, r0, r3
     58e:	18db      	adds	r3, r3, r3
     590:	fb90 f2f3 	sdiv	r2, r0, r3
     594:	fb03 0012 	mls	r0, r3, r2, r0
     598:	2801      	cmp	r0, #1
     59a:	d102      	bne.n	5a2 <tick_default+0x15a>
     59c:	210b      	movs	r1, #11
     59e:	4602      	mov	r2, r0
     5a0:	e002      	b.n	5a8 <tick_default+0x160>
     5a2:	2001      	movs	r0, #1
     5a4:	210b      	movs	r1, #11
     5a6:	462a      	mov	r2, r5
     5a8:	f005 f82e 	bl	5608 <gpioSetValue>
     5ac:	6822      	ldr	r2, [r4, #0]
     5ae:	f240 1399 	movw	r3, #409	; 0x199
     5b2:	3211      	adds	r2, #17
     5b4:	fb92 f1f3 	sdiv	r1, r2, r3
     5b8:	fb03 2311 	mls	r3, r3, r1, r2
     5bc:	b923      	cbnz	r3, 5c8 <tick_default+0x180>
     5be:	480d      	ldr	r0, [pc, #52]	; (5f4 <tick_default+0x1ac>)
     5c0:	e8bd 41f0 	ldmia.w	sp!, {r4, r5, r6, r7, r8, lr}
     5c4:	f003 b8f0 	b.w	37a8 <push_queue>
     5c8:	e8bd 81f0 	ldmia.w	sp!, {r4, r5, r6, r7, r8, pc}
     5cc:	100002ec 	.word	0x100002ec
     5d0:	100002c8 	.word	0x100002c8
     5d4:	10000374 	.word	0x10000374
     5d8:	100002cc 	.word	0x100002cc
     5dc:	10000210 	.word	0x10000210
     5e0:	100002cd 	.word	0x100002cd
     5e4:	000003fd 	.word	0x000003fd
     5e8:	000003f7 	.word	0x000003f7
     5ec:	50018000 	.word	0x50018000
     5f0:	40044098 	.word	0x40044098
     5f4:	00000b61 	.word	0x00000b61

000005f8 <main_diagnostics>:
     5f8:	b508      	push	{r3, lr}
     5fa:	2201      	movs	r2, #1
     5fc:	2002      	movs	r0, #2
     5fe:	2108      	movs	r1, #8
     600:	f004 ffb2 	bl	5568 <gpioSetDir>
     604:	4b09      	ldr	r3, [pc, #36]	; (62c <main_diagnostics+0x34>)
     606:	681a      	ldr	r2, [r3, #0]
     608:	f042 0280 	orr.w	r2, r2, #128	; 0x80
     60c:	601a      	str	r2, [r3, #0]
     60e:	4b08      	ldr	r3, [pc, #32]	; (630 <main_diagnostics+0x38>)
     610:	222c      	movs	r2, #44	; 0x2c
     612:	601a      	str	r2, [r3, #0]
     614:	3a23      	subs	r2, #35	; 0x23
     616:	60da      	str	r2, [r3, #12]
     618:	3a06      	subs	r2, #6
     61a:	609a      	str	r2, [r3, #8]
     61c:	3a02      	subs	r2, #2
     61e:	f843 2c08 	str.w	r2, [r3, #-8]
     622:	4b04      	ldr	r3, [pc, #16]	; (634 <main_diagnostics+0x3c>)
     624:	f44f 7200 	mov.w	r2, #512	; 0x200
     628:	605a      	str	r2, [r3, #4]
     62a:	bd08      	pop	{r3, pc}
     62c:	40048080 	.word	0x40048080
     630:	4000c00c 	.word	0x4000c00c
     634:	e000e100 	.word	0xe000e100

00000638 <TIMER16_0_IRQHandler>:
     638:	4b05      	ldr	r3, [pc, #20]	; (650 <TIMER16_0_IRQHandler+0x18>)
     63a:	681a      	ldr	r2, [r3, #0]
     63c:	f042 0201 	orr.w	r2, r2, #1
     640:	601a      	str	r2, [r3, #0]
     642:	4b04      	ldr	r3, [pc, #16]	; (654 <TIMER16_0_IRQHandler+0x1c>)
     644:	f44f 7280 	mov.w	r2, #256	; 0x100
     648:	601a      	str	r2, [r3, #0]
     64a:	2200      	movs	r2, #0
     64c:	601a      	str	r2, [r3, #0]
     64e:	4770      	bx	lr
     650:	4000c000 	.word	0x4000c000
     654:	50020400 	.word	0x50020400

00000658 <nrf_cmd>:
     658:	b513      	push	{r0, r1, r4, lr}
     65a:	2200      	movs	r2, #0
     65c:	4604      	mov	r4, r0
     65e:	210a      	movs	r1, #10
     660:	2001      	movs	r0, #1
     662:	f004 ffd1 	bl	5608 <gpioSetValue>
     666:	a902      	add	r1, sp, #8
     668:	f801 4d01 	strb.w	r4, [r1, #-1]!
     66c:	2000      	movs	r0, #0
     66e:	2201      	movs	r2, #1
     670:	f005 faec 	bl	5c4c <sspSend>
     674:	2001      	movs	r0, #1
     676:	210a      	movs	r1, #10
     678:	4602      	mov	r2, r0
     67a:	f004 ffc5 	bl	5608 <gpioSetValue>
     67e:	bd1c      	pop	{r2, r3, r4, pc}

00000680 <nrf_cmd_status>:
     680:	b513      	push	{r0, r1, r4, lr}
     682:	ac02      	add	r4, sp, #8
     684:	f804 0d01 	strb.w	r0, [r4, #-1]!
     688:	210a      	movs	r1, #10
     68a:	2001      	movs	r0, #1
     68c:	2200      	movs	r2, #0
     68e:	f004 ffbb 	bl	5608 <gpioSetValue>
     692:	2000      	movs	r0, #0
     694:	4621      	mov	r1, r4
     696:	2201      	movs	r2, #1
     698:	f005 fb0c 	bl	5cb4 <sspSendReceive>
     69c:	2001      	movs	r0, #1
     69e:	4602      	mov	r2, r0
     6a0:	210a      	movs	r1, #10
     6a2:	f004 ffb1 	bl	5608 <gpioSetValue>
     6a6:	f89d 0007 	ldrb.w	r0, [sp, #7]
     6aa:	bd1c      	pop	{r2, r3, r4, pc}

000006ac <nrf_write_reg>:
     6ac:	b537      	push	{r0, r1, r2, r4, r5, lr}
     6ae:	4604      	mov	r4, r0
     6b0:	460d      	mov	r5, r1
     6b2:	2001      	movs	r0, #1
     6b4:	210a      	movs	r1, #10
     6b6:	2200      	movs	r2, #0
     6b8:	f004 ffa6 	bl	5608 <gpioSetValue>
     6bc:	f044 0320 	orr.w	r3, r4, #32
     6c0:	ac02      	add	r4, sp, #8
     6c2:	f804 3d01 	strb.w	r3, [r4, #-1]!
     6c6:	2000      	movs	r0, #0
     6c8:	4621      	mov	r1, r4
     6ca:	2201      	movs	r2, #1
     6cc:	f005 fabe 	bl	5c4c <sspSend>
     6d0:	2000      	movs	r0, #0
     6d2:	4621      	mov	r1, r4
     6d4:	2201      	movs	r2, #1
     6d6:	f88d 5007 	strb.w	r5, [sp, #7]
     6da:	f005 fab7 	bl	5c4c <sspSend>
     6de:	2001      	movs	r0, #1
     6e0:	210a      	movs	r1, #10
     6e2:	4602      	mov	r2, r0
     6e4:	f004 ff90 	bl	5608 <gpioSetValue>
     6e8:	bd3e      	pop	{r1, r2, r3, r4, r5, pc}

000006ea <nrf_read_reg>:
     6ea:	b513      	push	{r0, r1, r4, lr}
     6ec:	2200      	movs	r2, #0
     6ee:	4604      	mov	r4, r0
     6f0:	210a      	movs	r1, #10
     6f2:	2001      	movs	r0, #1
     6f4:	f004 ff88 	bl	5608 <gpioSetValue>
     6f8:	a902      	add	r1, sp, #8
     6fa:	f801 4d02 	strb.w	r4, [r1, #-2]!
     6fe:	2000      	movs	r0, #0
     700:	2201      	movs	r2, #1
     702:	f005 faa3 	bl	5c4c <sspSend>
     706:	2000      	movs	r0, #0
     708:	f10d 0107 	add.w	r1, sp, #7
     70c:	2201      	movs	r2, #1
     70e:	f005 fab9 	bl	5c84 <sspReceive>
     712:	2001      	movs	r0, #1
     714:	4602      	mov	r2, r0
     716:	210a      	movs	r1, #10
     718:	f004 ff76 	bl	5608 <gpioSetValue>
     71c:	f89d 0007 	ldrb.w	r0, [sp, #7]
     720:	bd1c      	pop	{r2, r3, r4, pc}

00000722 <nrf_read_long>:
     722:	b573      	push	{r0, r1, r4, r5, r6, lr}
     724:	4606      	mov	r6, r0
     726:	460c      	mov	r4, r1
     728:	2001      	movs	r0, #1
     72a:	210a      	movs	r1, #10
     72c:	4615      	mov	r5, r2
     72e:	2200      	movs	r2, #0
     730:	f004 ff6a 	bl	5608 <gpioSetValue>
     734:	a902      	add	r1, sp, #8
     736:	f801 6d01 	strb.w	r6, [r1, #-1]!
     73a:	2000      	movs	r0, #0
     73c:	2201      	movs	r2, #1
     73e:	f005 fa85 	bl	5c4c <sspSend>
     742:	2300      	movs	r3, #0
     744:	e002      	b.n	74c <nrf_read_long+0x2a>
     746:	2200      	movs	r2, #0
     748:	54ea      	strb	r2, [r5, r3]
     74a:	3301      	adds	r3, #1
     74c:	42a3      	cmp	r3, r4
     74e:	dbfa      	blt.n	746 <nrf_read_long+0x24>
     750:	2000      	movs	r0, #0
     752:	4629      	mov	r1, r5
     754:	4622      	mov	r2, r4
     756:	f005 faad 	bl	5cb4 <sspSendReceive>
     75a:	2001      	movs	r0, #1
     75c:	210a      	movs	r1, #10
     75e:	4602      	mov	r2, r0
     760:	f004 ff52 	bl	5608 <gpioSetValue>
     764:	bd7c      	pop	{r2, r3, r4, r5, r6, pc}

00000766 <nrf_read_pkt>:
     766:	b537      	push	{r0, r1, r2, r4, r5, lr}
     768:	4604      	mov	r4, r0
     76a:	460d      	mov	r5, r1
     76c:	2001      	movs	r0, #1
     76e:	210a      	movs	r1, #10
     770:	2200      	movs	r2, #0
     772:	f004 ff49 	bl	5608 <gpioSetValue>
     776:	a902      	add	r1, sp, #8
     778:	2361      	movs	r3, #97	; 0x61
     77a:	f801 3d01 	strb.w	r3, [r1, #-1]!
     77e:	2000      	movs	r0, #0
     780:	2201      	movs	r2, #1
     782:	f005 fa63 	bl	5c4c <sspSend>
     786:	2000      	movs	r0, #0
     788:	4629      	mov	r1, r5
     78a:	4622      	mov	r2, r4
     78c:	f005 fa7a 	bl	5c84 <sspReceive>
     790:	2001      	movs	r0, #1
     792:	210a      	movs	r1, #10
     794:	4602      	mov	r2, r0
     796:	f004 ff37 	bl	5608 <gpioSetValue>
     79a:	bd3e      	pop	{r1, r2, r3, r4, r5, pc}

0000079c <nrf_write_long>:
     79c:	b573      	push	{r0, r1, r4, r5, r6, lr}
     79e:	4606      	mov	r6, r0
     7a0:	460c      	mov	r4, r1
     7a2:	4615      	mov	r5, r2
     7a4:	2001      	movs	r0, #1
     7a6:	210a      	movs	r1, #10
     7a8:	2200      	movs	r2, #0
     7aa:	f004 ff2d 	bl	5608 <gpioSetValue>
     7ae:	a902      	add	r1, sp, #8
     7b0:	f801 6d01 	strb.w	r6, [r1, #-1]!
     7b4:	2000      	movs	r0, #0
     7b6:	2201      	movs	r2, #1
     7b8:	f005 fa48 	bl	5c4c <sspSend>
     7bc:	2000      	movs	r0, #0
     7be:	4629      	mov	r1, r5
     7c0:	4622      	mov	r2, r4
     7c2:	f005 fa43 	bl	5c4c <sspSend>
     7c6:	2001      	movs	r0, #1
     7c8:	210a      	movs	r1, #10
     7ca:	4602      	mov	r2, r0
     7cc:	f004 ff1c 	bl	5608 <gpioSetValue>
     7d0:	bd7c      	pop	{r2, r3, r4, r5, r6, pc}

000007d2 <nrf_rcv_pkt_start>:
     7d2:	b510      	push	{r4, lr}
     7d4:	f040 0103 	orr.w	r1, r0, #3
     7d8:	2000      	movs	r0, #0
     7da:	f7ff ff67 	bl	6ac <nrf_write_reg>
     7de:	20e2      	movs	r0, #226	; 0xe2
     7e0:	f7ff ff3a 	bl	658 <nrf_cmd>
     7e4:	2007      	movs	r0, #7
     7e6:	2100      	movs	r1, #0
     7e8:	f7ff ff60 	bl	6ac <nrf_write_reg>
     7ec:	2001      	movs	r0, #1
     7ee:	2105      	movs	r1, #5
     7f0:	4602      	mov	r2, r0
     7f2:	e8bd 4010 	ldmia.w	sp!, {r4, lr}
     7f6:	f004 bf07 	b.w	5608 <gpioSetValue>

000007fa <nrf_rcv_pkt_poll>:
     7fa:	b537      	push	{r0, r1, r2, r4, r5, lr}
     7fc:	4605      	mov	r5, r0
     7fe:	20ff      	movs	r0, #255	; 0xff
     800:	460c      	mov	r4, r1
     802:	f7ff ff3d 	bl	680 <nrf_cmd_status>
     806:	f010 0340 	ands.w	r3, r0, #64	; 0x40
     80a:	d027      	beq.n	85c <nrf_rcv_pkt_poll+0x62>
     80c:	2300      	movs	r3, #0
     80e:	e002      	b.n	816 <nrf_rcv_pkt_poll+0x1c>
     810:	2200      	movs	r2, #0
     812:	54e2      	strb	r2, [r4, r3]
     814:	3301      	adds	r3, #1
     816:	42ab      	cmp	r3, r5
     818:	dbfa      	blt.n	810 <nrf_rcv_pkt_poll+0x16>
     81a:	f000 000e 	and.w	r0, r0, #14
     81e:	280e      	cmp	r0, #14
     820:	d104      	bne.n	82c <nrf_rcv_pkt_poll+0x32>
     822:	3807      	subs	r0, #7
     824:	2140      	movs	r1, #64	; 0x40
     826:	f7ff ff41 	bl	6ac <nrf_write_reg>
     82a:	e019      	b.n	860 <nrf_rcv_pkt_poll+0x66>
     82c:	2060      	movs	r0, #96	; 0x60
     82e:	2101      	movs	r1, #1
     830:	f10d 0207 	add.w	r2, sp, #7
     834:	f7ff ff75 	bl	722 <nrf_read_long>
     838:	2007      	movs	r0, #7
     83a:	2140      	movs	r1, #64	; 0x40
     83c:	f7ff ff36 	bl	6ac <nrf_write_reg>
     840:	f89d 0007 	ldrb.w	r0, [sp, #7]
     844:	1e43      	subs	r3, r0, #1
     846:	b2db      	uxtb	r3, r3
     848:	2b1f      	cmp	r3, #31
     84a:	d809      	bhi.n	860 <nrf_rcv_pkt_poll+0x66>
     84c:	42a8      	cmp	r0, r5
     84e:	dc0a      	bgt.n	866 <nrf_rcv_pkt_poll+0x6c>
     850:	4621      	mov	r1, r4
     852:	f7ff ff88 	bl	766 <nrf_read_pkt>
     856:	f89d 0007 	ldrb.w	r0, [sp, #7]
     85a:	e006      	b.n	86a <nrf_rcv_pkt_poll+0x70>
     85c:	4618      	mov	r0, r3
     85e:	e004      	b.n	86a <nrf_rcv_pkt_poll+0x70>
     860:	f06f 0001 	mvn.w	r0, #1
     864:	e001      	b.n	86a <nrf_rcv_pkt_poll+0x70>
     866:	f04f 30ff 	mov.w	r0, #4294967295
     86a:	bd3e      	pop	{r1, r2, r3, r4, r5, pc}

0000086c <nrf_rcv_pkt_poll_dec>:
     86c:	b570      	push	{r4, r5, r6, lr}
     86e:	460d      	mov	r5, r1
     870:	4616      	mov	r6, r2
     872:	f7ff ffc2 	bl	7fa <nrf_rcv_pkt_poll>
     876:	1e04      	subs	r4, r0, #0
     878:	dd14      	ble.n	8a4 <nrf_rcv_pkt_poll_dec+0x38>
     87a:	b126      	cbz	r6, 886 <nrf_rcv_pkt_poll_dec+0x1a>
     87c:	4628      	mov	r0, r5
     87e:	10a1      	asrs	r1, r4, #2
     880:	4632      	mov	r2, r6
     882:	f002 f9f3 	bl	2c6c <xxtea_decode_words>
     886:	1ea1      	subs	r1, r4, #2
     888:	4628      	mov	r0, r5
     88a:	f002 f8a3 	bl	29d4 <crc16>
     88e:	192d      	adds	r5, r5, r4
     890:	f815 2c02 	ldrb.w	r2, [r5, #-2]
     894:	f815 3c01 	ldrb.w	r3, [r5, #-1]
     898:	ea43 2302 	orr.w	r3, r3, r2, lsl #8
     89c:	4298      	cmp	r0, r3
     89e:	bf18      	it	ne
     8a0:	f06f 0402 	mvnne.w	r4, #2
     8a4:	4620      	mov	r0, r4
     8a6:	bd70      	pop	{r4, r5, r6, pc}

000008a8 <nrf_rcv_pkt_end>:
     8a8:	2105      	movs	r1, #5
     8aa:	b510      	push	{r4, lr}
     8ac:	2001      	movs	r0, #1
     8ae:	2200      	movs	r2, #0
     8b0:	f004 feaa 	bl	5608 <gpioSetValue>
     8b4:	20e2      	movs	r0, #226	; 0xe2
     8b6:	f7ff fecf 	bl	658 <nrf_cmd>
     8ba:	2007      	movs	r0, #7
     8bc:	2140      	movs	r1, #64	; 0x40
     8be:	e8bd 4010 	ldmia.w	sp!, {r4, lr}
     8c2:	f7ff bef3 	b.w	6ac <nrf_write_reg>

000008c6 <nrf_rcv_pkt_time_encr>:
     8c6:	b5f7      	push	{r0, r1, r2, r4, r5, r6, r7, lr}
     8c8:	4605      	mov	r5, r0
     8ca:	460e      	mov	r6, r1
     8cc:	2000      	movs	r0, #0
     8ce:	210b      	movs	r1, #11
     8d0:	461f      	mov	r7, r3
     8d2:	4614      	mov	r4, r2
     8d4:	f7ff feea 	bl	6ac <nrf_write_reg>
     8d8:	20e2      	movs	r0, #226	; 0xe2
     8da:	f7ff febd 	bl	658 <nrf_cmd>
     8de:	2007      	movs	r0, #7
     8e0:	2100      	movs	r1, #0
     8e2:	f7ff fee3 	bl	6ac <nrf_write_reg>
     8e6:	2001      	movs	r0, #1
     8e8:	2105      	movs	r1, #5
     8ea:	4602      	mov	r2, r0
     8ec:	f004 fe8c 	bl	5608 <gpioSetValue>
     8f0:	2300      	movs	r3, #0
     8f2:	e002      	b.n	8fa <nrf_rcv_pkt_time_encr+0x34>
     8f4:	2200      	movs	r2, #0
     8f6:	54e2      	strb	r2, [r4, r3]
     8f8:	3301      	adds	r3, #1
     8fa:	42b3      	cmp	r3, r6
     8fc:	dbfa      	blt.n	8f4 <nrf_rcv_pkt_time_encr+0x2e>
     8fe:	e042      	b.n	986 <nrf_rcv_pkt_time_encr+0xc0>
     900:	200a      	movs	r0, #10
     902:	f001 feb5 	bl	2670 <delayms>
     906:	20ff      	movs	r0, #255	; 0xff
     908:	f7ff feba 	bl	680 <nrf_cmd_status>
     90c:	f010 0f40 	tst.w	r0, #64	; 0x40
     910:	d038      	beq.n	984 <nrf_rcv_pkt_time_encr+0xbe>
     912:	f000 000e 	and.w	r0, r0, #14
     916:	280e      	cmp	r0, #14
     918:	d10a      	bne.n	930 <nrf_rcv_pkt_time_encr+0x6a>
     91a:	30d4      	adds	r0, #212	; 0xd4
     91c:	f7ff fe9c 	bl	658 <nrf_cmd>
     920:	2001      	movs	r0, #1
     922:	f001 fea5 	bl	2670 <delayms>
     926:	2007      	movs	r0, #7
     928:	2100      	movs	r1, #0
     92a:	f7ff febf 	bl	6ac <nrf_write_reg>
     92e:	e029      	b.n	984 <nrf_rcv_pkt_time_encr+0xbe>
     930:	2060      	movs	r0, #96	; 0x60
     932:	2101      	movs	r1, #1
     934:	f10d 0207 	add.w	r2, sp, #7
     938:	f7ff fef3 	bl	722 <nrf_read_long>
     93c:	f89d 0007 	ldrb.w	r0, [sp, #7]
     940:	1e43      	subs	r3, r0, #1
     942:	b2db      	uxtb	r3, r3
     944:	2b1f      	cmp	r3, #31
     946:	d81d      	bhi.n	984 <nrf_rcv_pkt_time_encr+0xbe>
     948:	42b0      	cmp	r0, r6
     94a:	dc1b      	bgt.n	984 <nrf_rcv_pkt_time_encr+0xbe>
     94c:	4621      	mov	r1, r4
     94e:	f7ff ff0a 	bl	766 <nrf_read_pkt>
     952:	b137      	cbz	r7, 962 <nrf_rcv_pkt_time_encr+0x9c>
     954:	f89d 1007 	ldrb.w	r1, [sp, #7]
     958:	4620      	mov	r0, r4
     95a:	0889      	lsrs	r1, r1, #2
     95c:	463a      	mov	r2, r7
     95e:	f002 f985 	bl	2c6c <xxtea_decode_words>
     962:	f89d 1007 	ldrb.w	r1, [sp, #7]
     966:	4620      	mov	r0, r4
     968:	3902      	subs	r1, #2
     96a:	f002 f833 	bl	29d4 <crc16>
     96e:	f89d 3007 	ldrb.w	r3, [sp, #7]
     972:	18e3      	adds	r3, r4, r3
     974:	f813 2c02 	ldrb.w	r2, [r3, #-2]
     978:	f813 3c01 	ldrb.w	r3, [r3, #-1]
     97c:	ea43 2302 	orr.w	r3, r3, r2, lsl #8
     980:	4298      	cmp	r0, r3
     982:	d002      	beq.n	98a <nrf_rcv_pkt_time_encr+0xc4>
     984:	3d0a      	subs	r5, #10
     986:	2d09      	cmp	r5, #9
     988:	dcba      	bgt.n	900 <nrf_rcv_pkt_time_encr+0x3a>
     98a:	2001      	movs	r0, #1
     98c:	2105      	movs	r1, #5
     98e:	2200      	movs	r2, #0
     990:	f004 fe3a 	bl	5608 <gpioSetValue>
     994:	2001      	movs	r0, #1
     996:	4602      	mov	r2, r0
     998:	210a      	movs	r1, #10
     99a:	f004 fe35 	bl	5608 <gpioSetValue>
     99e:	2d09      	cmp	r5, #9
     9a0:	bfcc      	ite	gt
     9a2:	f89d 0007 	ldrbgt.w	r0, [sp, #7]
     9a6:	2000      	movle	r0, #0
     9a8:	bdfe      	pop	{r1, r2, r3, r4, r5, r6, r7, pc}

000009aa <nrf_snd_pkt>:
     9aa:	b537      	push	{r0, r1, r2, r4, r5, lr}
     9ac:	4604      	mov	r4, r0
     9ae:	460d      	mov	r5, r1
     9b0:	2001      	movs	r0, #1
     9b2:	210a      	movs	r1, #10
     9b4:	2200      	movs	r2, #0
     9b6:	f004 fe27 	bl	5608 <gpioSetValue>
     9ba:	23a0      	movs	r3, #160	; 0xa0
     9bc:	a902      	add	r1, sp, #8
     9be:	f801 3d01 	strb.w	r3, [r1, #-1]!
     9c2:	2000      	movs	r0, #0
     9c4:	2201      	movs	r2, #1
     9c6:	f005 f941 	bl	5c4c <sspSend>
     9ca:	2000      	movs	r0, #0
     9cc:	4629      	mov	r1, r5
     9ce:	2c20      	cmp	r4, #32
     9d0:	bfb4      	ite	lt
     9d2:	4622      	movlt	r2, r4
     9d4:	2220      	movge	r2, #32
     9d6:	f005 f939 	bl	5c4c <sspSend>
     9da:	2001      	movs	r0, #1
     9dc:	210a      	movs	r1, #10
     9de:	4602      	mov	r2, r0
     9e0:	f004 fe12 	bl	5608 <gpioSetValue>
     9e4:	2001      	movs	r0, #1
     9e6:	2105      	movs	r1, #5
     9e8:	4602      	mov	r2, r0
     9ea:	f004 fe0d 	bl	5608 <gpioSetValue>
     9ee:	2001      	movs	r0, #1
     9f0:	f001 fe3e 	bl	2670 <delayms>
     9f4:	2001      	movs	r0, #1
     9f6:	2105      	movs	r1, #5
     9f8:	2200      	movs	r2, #0
     9fa:	f004 fe05 	bl	5608 <gpioSetValue>
     9fe:	20ff      	movs	r0, #255	; 0xff
     a00:	f7ff fe3e 	bl	680 <nrf_cmd_status>
     a04:	bd3e      	pop	{r1, r2, r3, r4, r5, pc}

00000a06 <nrf_snd_pkt_crc_encr>:
     a06:	b570      	push	{r4, r5, r6, lr}
     a08:	460d      	mov	r5, r1
     a0a:	2820      	cmp	r0, #32
     a0c:	bfb4      	ite	lt
     a0e:	4604      	movlt	r4, r0
     a10:	2420      	movge	r4, #32
     a12:	210a      	movs	r1, #10
     a14:	2000      	movs	r0, #0
     a16:	4616      	mov	r6, r2
     a18:	f7ff fe48 	bl	6ac <nrf_write_reg>
     a1c:	4628      	mov	r0, r5
     a1e:	1ea1      	subs	r1, r4, #2
     a20:	f001 ffd8 	bl	29d4 <crc16>
     a24:	192b      	adds	r3, r5, r4
     a26:	0a02      	lsrs	r2, r0, #8
     a28:	f803 2c02 	strb.w	r2, [r3, #-2]
     a2c:	f803 0c01 	strb.w	r0, [r3, #-1]
     a30:	b146      	cbz	r6, a44 <nrf_snd_pkt_crc_encr+0x3e>
     a32:	2c00      	cmp	r4, #0
     a34:	4621      	mov	r1, r4
     a36:	bfb8      	it	lt
     a38:	1ce1      	addlt	r1, r4, #3
     a3a:	4628      	mov	r0, r5
     a3c:	1089      	asrs	r1, r1, #2
     a3e:	4632      	mov	r2, r6
     a40:	f002 f8ab 	bl	2b9a <xxtea_encode_words>
     a44:	4620      	mov	r0, r4
     a46:	4629      	mov	r1, r5
     a48:	e8bd 4070 	ldmia.w	sp!, {r4, r5, r6, lr}
     a4c:	f7ff bfad 	b.w	9aa <nrf_snd_pkt>

00000a50 <nrf_set_channel>:
     a50:	b2c1      	uxtb	r1, r0
     a52:	2005      	movs	r0, #5
     a54:	f7ff be2a 	b.w	6ac <nrf_write_reg>

00000a58 <nrf_config_set>:
     a58:	b570      	push	{r4, r5, r6, lr}
     a5a:	4604      	mov	r4, r0
     a5c:	2003      	movs	r0, #3
     a5e:	4601      	mov	r1, r0
     a60:	f7ff fe24 	bl	6ac <nrf_write_reg>
     a64:	7820      	ldrb	r0, [r4, #0]
     a66:	f7ff fff3 	bl	a50 <nrf_set_channel>
     a6a:	260a      	movs	r6, #10
     a6c:	2500      	movs	r5, #0
     a6e:	e01c      	b.n	aaa <nrf_config_set+0x52>
     a70:	1df0      	adds	r0, r6, #7
     a72:	1963      	adds	r3, r4, r5
     a74:	b2c0      	uxtb	r0, r0
     a76:	7d59      	ldrb	r1, [r3, #21]
     a78:	f7ff fe18 	bl	6ac <nrf_write_reg>
     a7c:	b91d      	cbnz	r5, a86 <nrf_config_set+0x2e>
     a7e:	202a      	movs	r0, #42	; 0x2a
     a80:	2105      	movs	r1, #5
     a82:	1da2      	adds	r2, r4, #6
     a84:	e00c      	b.n	aa0 <nrf_config_set+0x48>
     a86:	2d01      	cmp	r5, #1
     a88:	d104      	bne.n	a94 <nrf_config_set+0x3c>
     a8a:	202b      	movs	r0, #43	; 0x2b
     a8c:	2105      	movs	r1, #5
     a8e:	f104 020b 	add.w	r2, r4, #11
     a92:	e005      	b.n	aa0 <nrf_config_set+0x48>
     a94:	f105 020e 	add.w	r2, r5, #14
     a98:	f046 0020 	orr.w	r0, r6, #32
     a9c:	2101      	movs	r1, #1
     a9e:	18a2      	adds	r2, r4, r2
     aa0:	f7ff fe7c 	bl	79c <nrf_write_long>
     aa4:	3601      	adds	r6, #1
     aa6:	3501      	adds	r5, #1
     aa8:	b2f6      	uxtb	r6, r6
     aaa:	7d23      	ldrb	r3, [r4, #20]
     aac:	429d      	cmp	r5, r3
     aae:	dbdf      	blt.n	a70 <nrf_config_set+0x18>
     ab0:	2030      	movs	r0, #48	; 0x30
     ab2:	2105      	movs	r1, #5
     ab4:	1c62      	adds	r2, r4, #1
     ab6:	f7ff fe71 	bl	79c <nrf_write_long>
     aba:	7d23      	ldrb	r3, [r4, #20]
     abc:	2101      	movs	r1, #1
     abe:	4099      	lsls	r1, r3
     ac0:	3901      	subs	r1, #1
     ac2:	2002      	movs	r0, #2
     ac4:	b2c9      	uxtb	r1, r1
     ac6:	e8bd 4070 	ldmia.w	sp!, {r4, r5, r6, lr}
     aca:	f7ff bdef 	b.w	6ac <nrf_write_reg>

00000ace <nrf_set_strength>:
     ace:	2803      	cmp	r0, #3
     ad0:	bf34      	ite	cc
     ad2:	4601      	movcc	r1, r0
     ad4:	2103      	movcs	r1, #3
     ad6:	0049      	lsls	r1, r1, #1
     ad8:	f041 0108 	orr.w	r1, r1, #8
     adc:	2006      	movs	r0, #6
     ade:	f001 01fe 	and.w	r1, r1, #254	; 0xfe
     ae2:	f7ff bde3 	b.w	6ac <nrf_write_reg>
	...

00000ae8 <nrf_init>:
     ae8:	2000      	movs	r0, #0
     aea:	b510      	push	{r4, lr}
     aec:	4601      	mov	r1, r0
     aee:	4602      	mov	r2, r0
     af0:	f005 f832 	bl	5b58 <sspInit>
     af4:	2001      	movs	r0, #1
     af6:	4602      	mov	r2, r0
     af8:	210a      	movs	r1, #10
     afa:	f004 fd35 	bl	5568 <gpioSetDir>
     afe:	2100      	movs	r1, #0
     b00:	4813      	ldr	r0, [pc, #76]	; (b50 <nrf_init+0x68>)
     b02:	f004 fdfd 	bl	5700 <gpioSetPullup>
     b06:	2001      	movs	r0, #1
     b08:	4602      	mov	r2, r0
     b0a:	2105      	movs	r1, #5
     b0c:	f004 fd2c 	bl	5568 <gpioSetDir>
     b10:	2110      	movs	r1, #16
     b12:	4810      	ldr	r0, [pc, #64]	; (b54 <nrf_init+0x6c>)
     b14:	f004 fdf4 	bl	5700 <gpioSetPullup>
     b18:	2001      	movs	r0, #1
     b1a:	2105      	movs	r1, #5
     b1c:	2200      	movs	r2, #0
     b1e:	f004 fd73 	bl	5608 <gpioSetValue>
     b22:	2200      	movs	r2, #0
     b24:	2001      	movs	r0, #1
     b26:	210a      	movs	r1, #10
     b28:	f004 fd6e 	bl	5608 <gpioSetValue>
     b2c:	2000      	movs	r0, #0
     b2e:	210b      	movs	r1, #11
     b30:	f7ff fdbc 	bl	6ac <nrf_write_reg>
     b34:	2001      	movs	r0, #1
     b36:	2100      	movs	r1, #0
     b38:	f7ff fdb8 	bl	6ac <nrf_write_reg>
     b3c:	2006      	movs	r0, #6
     b3e:	210e      	movs	r1, #14
     b40:	f7ff fdb4 	bl	6ac <nrf_write_reg>
     b44:	2007      	movs	r0, #7
     b46:	2110      	movs	r1, #16
     b48:	e8bd 4010 	ldmia.w	sp!, {r4, lr}
     b4c:	f7ff bdae 	b.w	6ac <nrf_write_reg>
     b50:	4004406c 	.word	0x4004406c
     b54:	400440a0 	.word	0x400440a0

00000b58 <nrf_off>:
     b58:	2000      	movs	r0, #0
     b5a:	2170      	movs	r1, #112	; 0x70
     b5c:	f7ff bda6 	b.w	6ac <nrf_write_reg>

00000b60 <nrf_check_reset>:
     b60:	20ff      	movs	r0, #255	; 0xff
     b62:	b510      	push	{r4, lr}
     b64:	f7ff fd8c 	bl	680 <nrf_cmd_status>
     b68:	f010 0f10 	tst.w	r0, #16
     b6c:	d007      	beq.n	b7e <nrf_check_reset+0x1e>
     b6e:	4b04      	ldr	r3, [pc, #16]	; (b80 <nrf_check_reset+0x20>)
     b70:	781a      	ldrb	r2, [r3, #0]
     b72:	3201      	adds	r2, #1
     b74:	701a      	strb	r2, [r3, #0]
     b76:	e8bd 4010 	ldmia.w	sp!, {r4, lr}
     b7a:	f7ff bfb5 	b.w	ae8 <nrf_init>
     b7e:	bd10      	pop	{r4, pc}
     b80:	100002ce 	.word	0x100002ce

00000b84 <meshGetMessage>:
     b84:	4b20      	ldr	r3, [pc, #128]	; (c08 <meshGetMessage+0x84>)
     b86:	e92d 41f0 	stmdb	sp!, {r4, r5, r6, r7, r8, lr}
     b8a:	4680      	mov	r8, r0
     b8c:	2500      	movs	r5, #0
     b8e:	f04f 34ff 	mov.w	r4, #4294967295
     b92:	781a      	ldrb	r2, [r3, #0]
     b94:	f012 0f01 	tst.w	r2, #1
     b98:	d104      	bne.n	ba4 <meshGetMessage+0x20>
     b9a:	f1b4 3fff 	cmp.w	r4, #4294967295
     b9e:	bf08      	it	eq
     ba0:	462c      	moveq	r4, r5
     ba2:	e003      	b.n	bac <meshGetMessage+0x28>
     ba4:	f813 2c20 	ldrb.w	r2, [r3, #-32]
     ba8:	4542      	cmp	r2, r8
     baa:	d014      	beq.n	bd6 <meshGetMessage+0x52>
     bac:	3501      	adds	r5, #1
     bae:	3321      	adds	r3, #33	; 0x21
     bb0:	2d0a      	cmp	r5, #10
     bb2:	d1ee      	bne.n	b92 <meshGetMessage+0xe>
     bb4:	f1b4 3fff 	cmp.w	r4, #4294967295
     bb8:	d10e      	bne.n	bd8 <meshGetMessage+0x54>
     bba:	f002 fd63 	bl	3684 <getRandom>
     bbe:	fbb0 f4f5 	udiv	r4, r0, r5
     bc2:	fb04 0415 	mls	r4, r4, r5, r0
     bc6:	4a11      	ldr	r2, [pc, #68]	; (c0c <meshGetMessage+0x88>)
     bc8:	0163      	lsls	r3, r4, #5
     bca:	191b      	adds	r3, r3, r4
     bcc:	18d3      	adds	r3, r2, r3
     bce:	2200      	movs	r2, #0
     bd0:	f883 2020 	strb.w	r2, [r3, #32]
     bd4:	e000      	b.n	bd8 <meshGetMessage+0x54>
     bd6:	462c      	mov	r4, r5
     bd8:	4e0c      	ldr	r6, [pc, #48]	; (c0c <meshGetMessage+0x88>)
     bda:	0167      	lsls	r7, r4, #5
     bdc:	193f      	adds	r7, r7, r4
     bde:	19f5      	adds	r5, r6, r7
     be0:	f895 1020 	ldrb.w	r1, [r5, #32]
     be4:	b959      	cbnz	r1, bfe <meshGetMessage+0x7a>
     be6:	4628      	mov	r0, r5
     be8:	2221      	movs	r2, #33	; 0x21
     bea:	f004 feef 	bl	59cc <memset>
     bee:	4b08      	ldr	r3, [pc, #32]	; (c10 <meshGetMessage+0x8c>)
     bf0:	f806 8007 	strb.w	r8, [r6, r7]
     bf4:	781b      	ldrb	r3, [r3, #0]
     bf6:	706b      	strb	r3, [r5, #1]
     bf8:	2301      	movs	r3, #1
     bfa:	f885 3020 	strb.w	r3, [r5, #32]
     bfe:	0163      	lsls	r3, r4, #5
     c00:	191c      	adds	r4, r3, r4
     c02:	1930      	adds	r0, r6, r4
     c04:	e8bd 81f0 	ldmia.w	sp!, {r4, r5, r6, r7, r8, pc}
     c08:	100003c4 	.word	0x100003c4
     c0c:	100003a4 	.word	0x100003a4
     c10:	100002d1 	.word	0x100002d1

00000c14 <mem_cpy>:
     c14:	b570      	push	{r4, r5, r6, lr}
     c16:	4613      	mov	r3, r2
     c18:	460d      	mov	r5, r1
     c1a:	4604      	mov	r4, r0
     c1c:	e004      	b.n	c28 <mem_cpy+0x14>
     c1e:	f855 6b04 	ldr.w	r6, [r5], #4
     c22:	3b04      	subs	r3, #4
     c24:	f844 6b04 	str.w	r6, [r4], #4
     c28:	2b03      	cmp	r3, #3
     c2a:	d8f8      	bhi.n	c1e <mem_cpy+0xa>
     c2c:	f002 0303 	and.w	r3, r2, #3
     c30:	f022 0203 	bic.w	r2, r2, #3
     c34:	1880      	adds	r0, r0, r2
     c36:	1889      	adds	r1, r1, r2
     c38:	e003      	b.n	c42 <mem_cpy+0x2e>
     c3a:	f811 2b01 	ldrb.w	r2, [r1], #1
     c3e:	f800 2b01 	strb.w	r2, [r0], #1
     c42:	3b01      	subs	r3, #1
     c44:	d2f9      	bcs.n	c3a <mem_cpy+0x26>
     c46:	bd70      	pop	{r4, r5, r6, pc}

00000c48 <mem_set>:
     c48:	e001      	b.n	c4e <mem_set+0x6>
     c4a:	f800 1b01 	strb.w	r1, [r0], #1
     c4e:	3a01      	subs	r2, #1
     c50:	d2fb      	bcs.n	c4a <mem_set+0x2>
     c52:	4770      	bx	lr

00000c54 <validate>:
     c54:	b508      	push	{r3, lr}
     c56:	b160      	cbz	r0, c72 <validate+0x1e>
     c58:	7803      	ldrb	r3, [r0, #0]
     c5a:	b153      	cbz	r3, c72 <validate+0x1e>
     c5c:	88c3      	ldrh	r3, [r0, #6]
     c5e:	428b      	cmp	r3, r1
     c60:	d109      	bne.n	c76 <validate+0x22>
     c62:	7840      	ldrb	r0, [r0, #1]
     c64:	f001 f810 	bl	1c88 <disk_status>
     c68:	f010 0001 	ands.w	r0, r0, #1
     c6c:	bf18      	it	ne
     c6e:	2003      	movne	r0, #3
     c70:	bd08      	pop	{r3, pc}
     c72:	2009      	movs	r0, #9
     c74:	bd08      	pop	{r3, pc}
     c76:	2009      	movs	r0, #9
     c78:	bd08      	pop	{r3, pc}

00000c7a <move_window>:
     c7a:	e92d 41f0 	stmdb	sp!, {r4, r5, r6, r7, r8, lr}
     c7e:	6ac5      	ldr	r5, [r0, #44]	; 0x2c
     c80:	4604      	mov	r4, r0
     c82:	428d      	cmp	r5, r1
     c84:	460e      	mov	r6, r1
     c86:	d02a      	beq.n	cde <move_window+0x64>
     c88:	7903      	ldrb	r3, [r0, #4]
     c8a:	b1e3      	cbz	r3, cc6 <move_window+0x4c>
     c8c:	f100 0830 	add.w	r8, r0, #48	; 0x30
     c90:	4641      	mov	r1, r8
     c92:	7840      	ldrb	r0, [r0, #1]
     c94:	462a      	mov	r2, r5
     c96:	2301      	movs	r3, #1
     c98:	f000 fffd 	bl	1c96 <disk_write>
     c9c:	bb10      	cbnz	r0, ce4 <move_window+0x6a>
     c9e:	69e2      	ldr	r2, [r4, #28]
     ca0:	6a23      	ldr	r3, [r4, #32]
     ca2:	7120      	strb	r0, [r4, #4]
     ca4:	18d3      	adds	r3, r2, r3
     ca6:	429d      	cmp	r5, r3
     ca8:	d20d      	bcs.n	cc6 <move_window+0x4c>
     caa:	78e7      	ldrb	r7, [r4, #3]
     cac:	e009      	b.n	cc2 <move_window+0x48>
     cae:	69e3      	ldr	r3, [r4, #28]
     cb0:	7860      	ldrb	r0, [r4, #1]
     cb2:	18ed      	adds	r5, r5, r3
     cb4:	4641      	mov	r1, r8
     cb6:	462a      	mov	r2, r5
     cb8:	2301      	movs	r3, #1
     cba:	f000 ffec 	bl	1c96 <disk_write>
     cbe:	3f01      	subs	r7, #1
     cc0:	b2ff      	uxtb	r7, r7
     cc2:	2f01      	cmp	r7, #1
     cc4:	d8f3      	bhi.n	cae <move_window+0x34>
     cc6:	b186      	cbz	r6, cea <move_window+0x70>
     cc8:	7860      	ldrb	r0, [r4, #1]
     cca:	f104 0130 	add.w	r1, r4, #48	; 0x30
     cce:	4632      	mov	r2, r6
     cd0:	2301      	movs	r3, #1
     cd2:	f000 ffdb 	bl	1c8c <disk_read>
     cd6:	b958      	cbnz	r0, cf0 <move_window+0x76>
     cd8:	62e6      	str	r6, [r4, #44]	; 0x2c
     cda:	e8bd 81f0 	ldmia.w	sp!, {r4, r5, r6, r7, r8, pc}
     cde:	2000      	movs	r0, #0
     ce0:	e8bd 81f0 	ldmia.w	sp!, {r4, r5, r6, r7, r8, pc}
     ce4:	2001      	movs	r0, #1
     ce6:	e8bd 81f0 	ldmia.w	sp!, {r4, r5, r6, r7, r8, pc}
     cea:	4630      	mov	r0, r6
     cec:	e8bd 81f0 	ldmia.w	sp!, {r4, r5, r6, r7, r8, pc}
     cf0:	2001      	movs	r0, #1
     cf2:	e8bd 81f0 	ldmia.w	sp!, {r4, r5, r6, r7, r8, pc}
	...

00000cf8 <check_fs>:
     cf8:	b510      	push	{r4, lr}
     cfa:	f100 0430 	add.w	r4, r0, #48	; 0x30
     cfe:	460a      	mov	r2, r1
     d00:	7840      	ldrb	r0, [r0, #1]
     d02:	4621      	mov	r1, r4
     d04:	2301      	movs	r3, #1
     d06:	f000 ffc1 	bl	1c8c <disk_read>
     d0a:	b9a0      	cbnz	r0, d36 <check_fs+0x3e>
     d0c:	f8b4 21fe 	ldrh.w	r2, [r4, #510]	; 0x1fe
     d10:	f64a 2355 	movw	r3, #43605	; 0xaa55
     d14:	429a      	cmp	r2, r3
     d16:	d110      	bne.n	d3a <check_fs+0x42>
     d18:	f8d4 2036 	ldr.w	r2, [r4, #54]	; 0x36
     d1c:	4b08      	ldr	r3, [pc, #32]	; (d40 <check_fs+0x48>)
     d1e:	f022 427f 	bic.w	r2, r2, #4278190080	; 0xff000000
     d22:	429a      	cmp	r2, r3
     d24:	d00a      	beq.n	d3c <check_fs+0x44>
     d26:	f8d4 0052 	ldr.w	r0, [r4, #82]	; 0x52
     d2a:	f020 407f 	bic.w	r0, r0, #4278190080	; 0xff000000
     d2e:	1ac0      	subs	r0, r0, r3
     d30:	bf18      	it	ne
     d32:	2001      	movne	r0, #1
     d34:	bd10      	pop	{r4, pc}
     d36:	2003      	movs	r0, #3
     d38:	bd10      	pop	{r4, pc}
     d3a:	2002      	movs	r0, #2
     d3c:	bd10      	pop	{r4, pc}
     d3e:	bf00      	nop
     d40:	00544146 	.word	0x00544146

00000d44 <chk_mounted>:
     d44:	e92d 43f8 	stmdb	sp!, {r3, r4, r5, r6, r7, r8, r9, lr}
     d48:	6803      	ldr	r3, [r0, #0]
     d4a:	4615      	mov	r5, r2
     d4c:	781a      	ldrb	r2, [r3, #0]
     d4e:	3a30      	subs	r2, #48	; 0x30
     d50:	2a09      	cmp	r2, #9
     d52:	d807      	bhi.n	d64 <chk_mounted+0x20>
     d54:	785c      	ldrb	r4, [r3, #1]
     d56:	2c3a      	cmp	r4, #58	; 0x3a
     d58:	d104      	bne.n	d64 <chk_mounted+0x20>
     d5a:	3302      	adds	r3, #2
     d5c:	6003      	str	r3, [r0, #0]
     d5e:	2a00      	cmp	r2, #0
     d60:	f040 80e0 	bne.w	f24 <chk_mounted+0x1e0>
     d64:	4b7b      	ldr	r3, [pc, #492]	; (f54 <chk_mounted+0x210>)
     d66:	681c      	ldr	r4, [r3, #0]
     d68:	600c      	str	r4, [r1, #0]
     d6a:	2c00      	cmp	r4, #0
     d6c:	f000 80dd 	beq.w	f2a <chk_mounted+0x1e6>
     d70:	7823      	ldrb	r3, [r4, #0]
     d72:	b173      	cbz	r3, d92 <chk_mounted+0x4e>
     d74:	7860      	ldrb	r0, [r4, #1]
     d76:	f000 ff87 	bl	1c88 <disk_status>
     d7a:	f010 0f01 	tst.w	r0, #1
     d7e:	d108      	bne.n	d92 <chk_mounted+0x4e>
     d80:	2d00      	cmp	r5, #0
     d82:	f000 80d5 	beq.w	f30 <chk_mounted+0x1ec>
     d86:	f010 0004 	ands.w	r0, r0, #4
     d8a:	bf18      	it	ne
     d8c:	200a      	movne	r0, #10
     d8e:	e8bd 83f8 	ldmia.w	sp!, {r3, r4, r5, r6, r7, r8, r9, pc}
     d92:	2000      	movs	r0, #0
     d94:	7020      	strb	r0, [r4, #0]
     d96:	7060      	strb	r0, [r4, #1]
     d98:	f000 ff74 	bl	1c84 <disk_initialize>
     d9c:	f010 0f01 	tst.w	r0, #1
     da0:	f040 80c9 	bne.w	f36 <chk_mounted+0x1f2>
     da4:	b11d      	cbz	r5, dae <chk_mounted+0x6a>
     da6:	f010 0f04 	tst.w	r0, #4
     daa:	f040 80c7 	bne.w	f3c <chk_mounted+0x1f8>
     dae:	2100      	movs	r1, #0
     db0:	4620      	mov	r0, r4
     db2:	f7ff ffa1 	bl	cf8 <check_fs>
     db6:	2801      	cmp	r0, #1
     db8:	d10b      	bne.n	dd2 <chk_mounted+0x8e>
     dba:	f894 31f2 	ldrb.w	r3, [r4, #498]	; 0x1f2
     dbe:	2b00      	cmp	r3, #0
     dc0:	f000 80c2 	beq.w	f48 <chk_mounted+0x204>
     dc4:	f8d4 71f6 	ldr.w	r7, [r4, #502]	; 0x1f6
     dc8:	4620      	mov	r0, r4
     dca:	4639      	mov	r1, r7
     dcc:	f7ff ff94 	bl	cf8 <check_fs>
     dd0:	e000      	b.n	dd4 <chk_mounted+0x90>
     dd2:	2700      	movs	r7, #0
     dd4:	2803      	cmp	r0, #3
     dd6:	f000 80b4 	beq.w	f42 <chk_mounted+0x1fe>
     dda:	2800      	cmp	r0, #0
     ddc:	f040 80b4 	bne.w	f48 <chk_mounted+0x204>
     de0:	f104 0530 	add.w	r5, r4, #48	; 0x30
     de4:	f8b5 300b 	ldrh.w	r3, [r5, #11]
     de8:	f5b3 7f00 	cmp.w	r3, #512	; 0x200
     dec:	f040 80ac 	bne.w	f48 <chk_mounted+0x204>
     df0:	8aeb      	ldrh	r3, [r5, #22]
     df2:	b903      	cbnz	r3, df6 <chk_mounted+0xb2>
     df4:	6a6b      	ldr	r3, [r5, #36]	; 0x24
     df6:	f894 9040 	ldrb.w	r9, [r4, #64]	; 0x40
     dfa:	61e3      	str	r3, [r4, #28]
     dfc:	f109 32ff 	add.w	r2, r9, #4294967295
     e00:	b2d2      	uxtb	r2, r2
     e02:	2a01      	cmp	r2, #1
     e04:	f884 9003 	strb.w	r9, [r4, #3]
     e08:	f200 809e 	bhi.w	f48 <chk_mounted+0x204>
     e0c:	f894 003d 	ldrb.w	r0, [r4, #61]	; 0x3d
     e10:	70a0      	strb	r0, [r4, #2]
     e12:	2800      	cmp	r0, #0
     e14:	f000 8098 	beq.w	f48 <chk_mounted+0x204>
     e18:	1e42      	subs	r2, r0, #1
     e1a:	4202      	tst	r2, r0
     e1c:	f040 8094 	bne.w	f48 <chk_mounted+0x204>
     e20:	f8b5 1011 	ldrh.w	r1, [r5, #17]
     e24:	f011 0f0f 	tst.w	r1, #15
     e28:	8121      	strh	r1, [r4, #8]
     e2a:	f040 808d 	bne.w	f48 <chk_mounted+0x204>
     e2e:	f8b5 2013 	ldrh.w	r2, [r5, #19]
     e32:	b902      	cbnz	r2, e36 <chk_mounted+0xf2>
     e34:	6a2a      	ldr	r2, [r5, #32]
     e36:	f8b5 c00e 	ldrh.w	ip, [r5, #14]
     e3a:	f1bc 0f00 	cmp.w	ip, #0
     e3e:	f000 8083 	beq.w	f48 <chk_mounted+0x204>
     e42:	fb09 f903 	mul.w	r9, r9, r3
     e46:	eb0c 1811 	add.w	r8, ip, r1, lsr #4
     e4a:	44c8      	add	r8, r9
     e4c:	4542      	cmp	r2, r8
     e4e:	d37b      	bcc.n	f48 <chk_mounted+0x204>
     e50:	ebc8 0202 	rsb	r2, r8, r2
     e54:	fbb2 f2f0 	udiv	r2, r2, r0
     e58:	2a00      	cmp	r2, #0
     e5a:	d075      	beq.n	f48 <chk_mounted+0x204>
     e5c:	f640 70f5 	movw	r0, #4085	; 0xff5
     e60:	4282      	cmp	r2, r0
     e62:	d906      	bls.n	e72 <chk_mounted+0x12e>
     e64:	f64f 76f5 	movw	r6, #65525	; 0xfff5
     e68:	42b2      	cmp	r2, r6
     e6a:	bf8c      	ite	hi
     e6c:	2603      	movhi	r6, #3
     e6e:	2602      	movls	r6, #2
     e70:	e000      	b.n	e74 <chk_mounted+0x130>
     e72:	2601      	movs	r6, #1
     e74:	eb08 0007 	add.w	r0, r8, r7
     e78:	3202      	adds	r2, #2
     e7a:	62a0      	str	r0, [r4, #40]	; 0x28
     e7c:	2e03      	cmp	r6, #3
     e7e:	eb07 000c 	add.w	r0, r7, ip
     e82:	61a2      	str	r2, [r4, #24]
     e84:	6220      	str	r0, [r4, #32]
     e86:	d105      	bne.n	e94 <chk_mounted+0x150>
     e88:	2900      	cmp	r1, #0
     e8a:	d15d      	bne.n	f48 <chk_mounted+0x204>
     e8c:	6ae9      	ldr	r1, [r5, #44]	; 0x2c
     e8e:	0092      	lsls	r2, r2, #2
     e90:	6261      	str	r1, [r4, #36]	; 0x24
     e92:	e00f      	b.n	eb4 <chk_mounted+0x170>
     e94:	2900      	cmp	r1, #0
     e96:	d057      	beq.n	f48 <chk_mounted+0x204>
     e98:	2e02      	cmp	r6, #2
     e9a:	ea4f 0142 	mov.w	r1, r2, lsl #1
     e9e:	bf18      	it	ne
     ea0:	1889      	addne	r1, r1, r2
     ea2:	4448      	add	r0, r9
     ea4:	bf18      	it	ne
     ea6:	f002 0201 	andne.w	r2, r2, #1
     eaa:	6260      	str	r0, [r4, #36]	; 0x24
     eac:	bf0c      	ite	eq
     eae:	460a      	moveq	r2, r1
     eb0:	eb02 0251 	addne.w	r2, r2, r1, lsr #1
     eb4:	f502 72fe 	add.w	r2, r2, #508	; 0x1fc
     eb8:	3203      	adds	r2, #3
     eba:	ebb3 2f52 	cmp.w	r3, r2, lsr #9
     ebe:	d346      	bcc.n	f4e <chk_mounted+0x20a>
     ec0:	f04f 33ff 	mov.w	r3, #4294967295
     ec4:	6123      	str	r3, [r4, #16]
     ec6:	3301      	adds	r3, #1
     ec8:	2e03      	cmp	r6, #3
     eca:	60e3      	str	r3, [r4, #12]
     ecc:	d11f      	bne.n	f0e <chk_mounted+0x1ca>
     ece:	7163      	strb	r3, [r4, #5]
     ed0:	8e2a      	ldrh	r2, [r5, #48]	; 0x30
     ed2:	7860      	ldrb	r0, [r4, #1]
     ed4:	18ba      	adds	r2, r7, r2
     ed6:	6162      	str	r2, [r4, #20]
     ed8:	f104 0130 	add.w	r1, r4, #48	; 0x30
     edc:	3301      	adds	r3, #1
     ede:	f000 fed5 	bl	1c8c <disk_read>
     ee2:	b9a0      	cbnz	r0, f0e <chk_mounted+0x1ca>
     ee4:	f8b5 21fe 	ldrh.w	r2, [r5, #510]	; 0x1fe
     ee8:	f64a 2355 	movw	r3, #43605	; 0xaa55
     eec:	429a      	cmp	r2, r3
     eee:	d10e      	bne.n	f0e <chk_mounted+0x1ca>
     ef0:	6b22      	ldr	r2, [r4, #48]	; 0x30
     ef2:	4b19      	ldr	r3, [pc, #100]	; (f58 <chk_mounted+0x214>)
     ef4:	429a      	cmp	r2, r3
     ef6:	d10a      	bne.n	f0e <chk_mounted+0x1ca>
     ef8:	f8d5 21e4 	ldr.w	r2, [r5, #484]	; 0x1e4
     efc:	4b17      	ldr	r3, [pc, #92]	; (f5c <chk_mounted+0x218>)
     efe:	429a      	cmp	r2, r3
     f00:	d105      	bne.n	f0e <chk_mounted+0x1ca>
     f02:	f8d5 31ec 	ldr.w	r3, [r5, #492]	; 0x1ec
     f06:	60e3      	str	r3, [r4, #12]
     f08:	f8d5 31e8 	ldr.w	r3, [r5, #488]	; 0x1e8
     f0c:	6123      	str	r3, [r4, #16]
     f0e:	4a14      	ldr	r2, [pc, #80]	; (f60 <chk_mounted+0x21c>)
     f10:	7026      	strb	r6, [r4, #0]
     f12:	8813      	ldrh	r3, [r2, #0]
     f14:	2000      	movs	r0, #0
     f16:	3301      	adds	r3, #1
     f18:	8013      	strh	r3, [r2, #0]
     f1a:	80e3      	strh	r3, [r4, #6]
     f1c:	62e0      	str	r0, [r4, #44]	; 0x2c
     f1e:	7120      	strb	r0, [r4, #4]
     f20:	e8bd 83f8 	ldmia.w	sp!, {r3, r4, r5, r6, r7, r8, r9, pc}
     f24:	200b      	movs	r0, #11
     f26:	e8bd 83f8 	ldmia.w	sp!, {r3, r4, r5, r6, r7, r8, r9, pc}
     f2a:	200c      	movs	r0, #12
     f2c:	e8bd 83f8 	ldmia.w	sp!, {r3, r4, r5, r6, r7, r8, r9, pc}
     f30:	4628      	mov	r0, r5
     f32:	e8bd 83f8 	ldmia.w	sp!, {r3, r4, r5, r6, r7, r8, r9, pc}
     f36:	2003      	movs	r0, #3
     f38:	e8bd 83f8 	ldmia.w	sp!, {r3, r4, r5, r6, r7, r8, r9, pc}
     f3c:	200a      	movs	r0, #10
     f3e:	e8bd 83f8 	ldmia.w	sp!, {r3, r4, r5, r6, r7, r8, r9, pc}
     f42:	2001      	movs	r0, #1
     f44:	e8bd 83f8 	ldmia.w	sp!, {r3, r4, r5, r6, r7, r8, r9, pc}
     f48:	200d      	movs	r0, #13
     f4a:	e8bd 83f8 	ldmia.w	sp!, {r3, r4, r5, r6, r7, r8, r9, pc}
     f4e:	200d      	movs	r0, #13
     f50:	e8bd 83f8 	ldmia.w	sp!, {r3, r4, r5, r6, r7, r8, r9, pc}
     f54:	100002d4 	.word	0x100002d4
     f58:	41615252 	.word	0x41615252
     f5c:	61417272 	.word	0x61417272
     f60:	100002d2 	.word	0x100002d2

00000f64 <clust2sect>:
     f64:	6983      	ldr	r3, [r0, #24]
     f66:	3902      	subs	r1, #2
     f68:	3b02      	subs	r3, #2
     f6a:	4299      	cmp	r1, r3
     f6c:	d204      	bcs.n	f78 <clust2sect+0x14>
     f6e:	7882      	ldrb	r2, [r0, #2]
     f70:	6a83      	ldr	r3, [r0, #40]	; 0x28
     f72:	fb02 3001 	mla	r0, r2, r1, r3
     f76:	4770      	bx	lr
     f78:	2000      	movs	r0, #0
     f7a:	4770      	bx	lr

00000f7c <get_fat>:
     f7c:	2901      	cmp	r1, #1
     f7e:	b5f8      	push	{r3, r4, r5, r6, r7, lr}
     f80:	4604      	mov	r4, r0
     f82:	460d      	mov	r5, r1
     f84:	d947      	bls.n	1016 <get_fat+0x9a>
     f86:	6983      	ldr	r3, [r0, #24]
     f88:	4299      	cmp	r1, r3
     f8a:	d244      	bcs.n	1016 <get_fat+0x9a>
     f8c:	7803      	ldrb	r3, [r0, #0]
     f8e:	2b02      	cmp	r3, #2
     f90:	d029      	beq.n	fe6 <get_fat+0x6a>
     f92:	2b03      	cmp	r3, #3
     f94:	d032      	beq.n	ffc <get_fat+0x80>
     f96:	2b01      	cmp	r3, #1
     f98:	d13f      	bne.n	101a <get_fat+0x9e>
     f9a:	eb01 0651 	add.w	r6, r1, r1, lsr #1
     f9e:	6a01      	ldr	r1, [r0, #32]
     fa0:	eb01 2156 	add.w	r1, r1, r6, lsr #9
     fa4:	f7ff fe69 	bl	c7a <move_window>
     fa8:	2800      	cmp	r0, #0
     faa:	d136      	bne.n	101a <get_fat+0x9e>
     fac:	05f3      	lsls	r3, r6, #23
     fae:	6a21      	ldr	r1, [r4, #32]
     fb0:	0ddb      	lsrs	r3, r3, #23
     fb2:	3601      	adds	r6, #1
     fb4:	18e3      	adds	r3, r4, r3
     fb6:	4620      	mov	r0, r4
     fb8:	eb01 2156 	add.w	r1, r1, r6, lsr #9
     fbc:	f893 7030 	ldrb.w	r7, [r3, #48]	; 0x30
     fc0:	f7ff fe5b 	bl	c7a <move_window>
     fc4:	2800      	cmp	r0, #0
     fc6:	d128      	bne.n	101a <get_fat+0x9e>
     fc8:	05f6      	lsls	r6, r6, #23
     fca:	0df6      	lsrs	r6, r6, #23
     fcc:	19a6      	adds	r6, r4, r6
     fce:	f896 0030 	ldrb.w	r0, [r6, #48]	; 0x30
     fd2:	f015 0f01 	tst.w	r5, #1
     fd6:	ea47 2000 	orr.w	r0, r7, r0, lsl #8
     fda:	d001      	beq.n	fe0 <get_fat+0x64>
     fdc:	0900      	lsrs	r0, r0, #4
     fde:	bdf8      	pop	{r3, r4, r5, r6, r7, pc}
     fe0:	0500      	lsls	r0, r0, #20
     fe2:	0d00      	lsrs	r0, r0, #20
     fe4:	bdf8      	pop	{r3, r4, r5, r6, r7, pc}
     fe6:	6a01      	ldr	r1, [r0, #32]
     fe8:	eb01 2115 	add.w	r1, r1, r5, lsr #8
     fec:	f7ff fe45 	bl	c7a <move_window>
     ff0:	b998      	cbnz	r0, 101a <get_fat+0x9e>
     ff2:	062d      	lsls	r5, r5, #24
     ff4:	eb04 54d5 	add.w	r4, r4, r5, lsr #23
     ff8:	8e20      	ldrh	r0, [r4, #48]	; 0x30
     ffa:	bdf8      	pop	{r3, r4, r5, r6, r7, pc}
     ffc:	6a01      	ldr	r1, [r0, #32]
     ffe:	eb01 11d5 	add.w	r1, r1, r5, lsr #7
    1002:	f7ff fe3a 	bl	c7a <move_window>
    1006:	b958      	cbnz	r0, 1020 <get_fat+0xa4>
    1008:	066d      	lsls	r5, r5, #25
    100a:	eb04 54d5 	add.w	r4, r4, r5, lsr #23
    100e:	6b20      	ldr	r0, [r4, #48]	; 0x30
    1010:	f020 4070 	bic.w	r0, r0, #4026531840	; 0xf0000000
    1014:	bdf8      	pop	{r3, r4, r5, r6, r7, pc}
    1016:	2001      	movs	r0, #1
    1018:	bdf8      	pop	{r3, r4, r5, r6, r7, pc}
    101a:	f04f 30ff 	mov.w	r0, #4294967295
    101e:	bdf8      	pop	{r3, r4, r5, r6, r7, pc}
    1020:	f04f 30ff 	mov.w	r0, #4294967295
    1024:	bdf8      	pop	{r3, r4, r5, r6, r7, pc}

00001026 <dir_sdi.clone.1>:
    1026:	6881      	ldr	r1, [r0, #8]
    1028:	2300      	movs	r3, #0
    102a:	2901      	cmp	r1, #1
    102c:	b510      	push	{r4, lr}
    102e:	4604      	mov	r4, r0
    1030:	80c3      	strh	r3, [r0, #6]
    1032:	d02b      	beq.n	108c <dir_sdi.clone.1+0x66>
    1034:	6800      	ldr	r0, [r0, #0]
    1036:	6983      	ldr	r3, [r0, #24]
    1038:	4299      	cmp	r1, r3
    103a:	d227      	bcs.n	108c <dir_sdi.clone.1+0x66>
    103c:	b959      	cbnz	r1, 1056 <dir_sdi.clone.1+0x30>
    103e:	7803      	ldrb	r3, [r0, #0]
    1040:	2b03      	cmp	r3, #3
    1042:	d101      	bne.n	1048 <dir_sdi.clone.1+0x22>
    1044:	6a41      	ldr	r1, [r0, #36]	; 0x24
    1046:	b931      	cbnz	r1, 1056 <dir_sdi.clone.1+0x30>
    1048:	2300      	movs	r3, #0
    104a:	60e3      	str	r3, [r4, #12]
    104c:	8903      	ldrh	r3, [r0, #8]
    104e:	b1eb      	cbz	r3, 108c <dir_sdi.clone.1+0x66>
    1050:	6a43      	ldr	r3, [r0, #36]	; 0x24
    1052:	6123      	str	r3, [r4, #16]
    1054:	e013      	b.n	107e <dir_sdi.clone.1+0x58>
    1056:	7883      	ldrb	r3, [r0, #2]
    1058:	b96b      	cbnz	r3, 1076 <dir_sdi.clone.1+0x50>
    105a:	6820      	ldr	r0, [r4, #0]
    105c:	f7ff ff8e 	bl	f7c <get_fat>
    1060:	f1b0 3fff 	cmp.w	r0, #4294967295
    1064:	4601      	mov	r1, r0
    1066:	d00f      	beq.n	1088 <dir_sdi.clone.1+0x62>
    1068:	2801      	cmp	r0, #1
    106a:	d90f      	bls.n	108c <dir_sdi.clone.1+0x66>
    106c:	6823      	ldr	r3, [r4, #0]
    106e:	699b      	ldr	r3, [r3, #24]
    1070:	4298      	cmp	r0, r3
    1072:	d3f2      	bcc.n	105a <dir_sdi.clone.1+0x34>
    1074:	e00c      	b.n	1090 <dir_sdi.clone.1+0x6a>
    1076:	60e1      	str	r1, [r4, #12]
    1078:	f7ff ff74 	bl	f64 <clust2sect>
    107c:	6120      	str	r0, [r4, #16]
    107e:	6823      	ldr	r3, [r4, #0]
    1080:	2000      	movs	r0, #0
    1082:	3330      	adds	r3, #48	; 0x30
    1084:	6163      	str	r3, [r4, #20]
    1086:	bd10      	pop	{r4, pc}
    1088:	2001      	movs	r0, #1
    108a:	bd10      	pop	{r4, pc}
    108c:	2002      	movs	r0, #2
    108e:	bd10      	pop	{r4, pc}
    1090:	2002      	movs	r0, #2
    1092:	bd10      	pop	{r4, pc}

00001094 <put_fat>:
    1094:	2901      	cmp	r1, #1
    1096:	b5f8      	push	{r3, r4, r5, r6, r7, lr}
    1098:	4604      	mov	r4, r0
    109a:	460d      	mov	r5, r1
    109c:	4616      	mov	r6, r2
    109e:	d95d      	bls.n	115c <put_fat+0xc8>
    10a0:	6983      	ldr	r3, [r0, #24]
    10a2:	4299      	cmp	r1, r3
    10a4:	d25c      	bcs.n	1160 <put_fat+0xcc>
    10a6:	7803      	ldrb	r3, [r0, #0]
    10a8:	2b02      	cmp	r3, #2
    10aa:	d039      	beq.n	1120 <put_fat+0x8c>
    10ac:	2b03      	cmp	r3, #3
    10ae:	d042      	beq.n	1136 <put_fat+0xa2>
    10b0:	2b01      	cmp	r3, #1
    10b2:	d14f      	bne.n	1154 <put_fat+0xc0>
    10b4:	eb01 0751 	add.w	r7, r1, r1, lsr #1
    10b8:	6a01      	ldr	r1, [r0, #32]
    10ba:	eb01 2157 	add.w	r1, r1, r7, lsr #9
    10be:	f7ff fddc 	bl	c7a <move_window>
    10c2:	2800      	cmp	r0, #0
    10c4:	d147      	bne.n	1156 <put_fat+0xc2>
    10c6:	05fb      	lsls	r3, r7, #23
    10c8:	0ddb      	lsrs	r3, r3, #23
    10ca:	f015 0501 	ands.w	r5, r5, #1
    10ce:	b2f2      	uxtb	r2, r6
    10d0:	d006      	beq.n	10e0 <put_fat+0x4c>
    10d2:	18e1      	adds	r1, r4, r3
    10d4:	f891 1030 	ldrb.w	r1, [r1, #48]	; 0x30
    10d8:	f001 010f 	and.w	r1, r1, #15
    10dc:	ea41 1202 	orr.w	r2, r1, r2, lsl #4
    10e0:	18e3      	adds	r3, r4, r3
    10e2:	6a21      	ldr	r1, [r4, #32]
    10e4:	f883 2030 	strb.w	r2, [r3, #48]	; 0x30
    10e8:	3701      	adds	r7, #1
    10ea:	2301      	movs	r3, #1
    10ec:	7123      	strb	r3, [r4, #4]
    10ee:	4620      	mov	r0, r4
    10f0:	eb01 2157 	add.w	r1, r1, r7, lsr #9
    10f4:	f7ff fdc1 	bl	c7a <move_window>
    10f8:	bb68      	cbnz	r0, 1156 <put_fat+0xc2>
    10fa:	05ff      	lsls	r7, r7, #23
    10fc:	0dff      	lsrs	r7, r7, #23
    10fe:	b10d      	cbz	r5, 1104 <put_fat+0x70>
    1100:	0936      	lsrs	r6, r6, #4
    1102:	e009      	b.n	1118 <put_fat+0x84>
    1104:	19e3      	adds	r3, r4, r7
    1106:	f893 3030 	ldrb.w	r3, [r3, #48]	; 0x30
    110a:	0a36      	lsrs	r6, r6, #8
    110c:	f023 030f 	bic.w	r3, r3, #15
    1110:	f006 060f 	and.w	r6, r6, #15
    1114:	ea43 0606 	orr.w	r6, r3, r6
    1118:	19e7      	adds	r7, r4, r7
    111a:	f887 6030 	strb.w	r6, [r7, #48]	; 0x30
    111e:	e01a      	b.n	1156 <put_fat+0xc2>
    1120:	6a01      	ldr	r1, [r0, #32]
    1122:	eb01 2115 	add.w	r1, r1, r5, lsr #8
    1126:	f7ff fda8 	bl	c7a <move_window>
    112a:	b9a0      	cbnz	r0, 1156 <put_fat+0xc2>
    112c:	062d      	lsls	r5, r5, #24
    112e:	eb04 55d5 	add.w	r5, r4, r5, lsr #23
    1132:	862e      	strh	r6, [r5, #48]	; 0x30
    1134:	e00f      	b.n	1156 <put_fat+0xc2>
    1136:	6a01      	ldr	r1, [r0, #32]
    1138:	eb01 11d5 	add.w	r1, r1, r5, lsr #7
    113c:	f7ff fd9d 	bl	c7a <move_window>
    1140:	b948      	cbnz	r0, 1156 <put_fat+0xc2>
    1142:	066d      	lsls	r5, r5, #25
    1144:	0ded      	lsrs	r5, r5, #23
    1146:	3530      	adds	r5, #48	; 0x30
    1148:	5963      	ldr	r3, [r4, r5]
    114a:	f003 4370 	and.w	r3, r3, #4026531840	; 0xf0000000
    114e:	431e      	orrs	r6, r3
    1150:	5166      	str	r6, [r4, r5]
    1152:	e000      	b.n	1156 <put_fat+0xc2>
    1154:	2002      	movs	r0, #2
    1156:	2301      	movs	r3, #1
    1158:	7123      	strb	r3, [r4, #4]
    115a:	bdf8      	pop	{r3, r4, r5, r6, r7, pc}
    115c:	2002      	movs	r0, #2
    115e:	bdf8      	pop	{r3, r4, r5, r6, r7, pc}
    1160:	2002      	movs	r0, #2
    1162:	bdf8      	pop	{r3, r4, r5, r6, r7, pc}

00001164 <create_chain>:
    1164:	b5f8      	push	{r3, r4, r5, r6, r7, lr}
    1166:	4605      	mov	r5, r0
    1168:	460e      	mov	r6, r1
    116a:	b931      	cbnz	r1, 117a <create_chain+0x16>
    116c:	68c7      	ldr	r7, [r0, #12]
    116e:	b16f      	cbz	r7, 118c <create_chain+0x28>
    1170:	6983      	ldr	r3, [r0, #24]
    1172:	429f      	cmp	r7, r3
    1174:	bf28      	it	cs
    1176:	2701      	movcs	r7, #1
    1178:	e009      	b.n	118e <create_chain+0x2a>
    117a:	f7ff feff 	bl	f7c <get_fat>
    117e:	2801      	cmp	r0, #1
    1180:	d939      	bls.n	11f6 <create_chain+0x92>
    1182:	69ab      	ldr	r3, [r5, #24]
    1184:	4298      	cmp	r0, r3
    1186:	d33b      	bcc.n	1200 <create_chain+0x9c>
    1188:	4637      	mov	r7, r6
    118a:	e000      	b.n	118e <create_chain+0x2a>
    118c:	2701      	movs	r7, #1
    118e:	463c      	mov	r4, r7
    1190:	69ab      	ldr	r3, [r5, #24]
    1192:	3401      	adds	r4, #1
    1194:	429c      	cmp	r4, r3
    1196:	d302      	bcc.n	119e <create_chain+0x3a>
    1198:	2f01      	cmp	r7, #1
    119a:	d92e      	bls.n	11fa <create_chain+0x96>
    119c:	2402      	movs	r4, #2
    119e:	4628      	mov	r0, r5
    11a0:	4621      	mov	r1, r4
    11a2:	f7ff feeb 	bl	f7c <get_fat>
    11a6:	b138      	cbz	r0, 11b8 <create_chain+0x54>
    11a8:	f1b0 3fff 	cmp.w	r0, #4294967295
    11ac:	d028      	beq.n	1200 <create_chain+0x9c>
    11ae:	2801      	cmp	r0, #1
    11b0:	d026      	beq.n	1200 <create_chain+0x9c>
    11b2:	42bc      	cmp	r4, r7
    11b4:	d1ec      	bne.n	1190 <create_chain+0x2c>
    11b6:	e020      	b.n	11fa <create_chain+0x96>
    11b8:	4628      	mov	r0, r5
    11ba:	4621      	mov	r1, r4
    11bc:	f06f 4270 	mvn.w	r2, #4026531840	; 0xf0000000
    11c0:	f7ff ff68 	bl	1094 <put_fat>
    11c4:	b988      	cbnz	r0, 11ea <create_chain+0x86>
    11c6:	b12e      	cbz	r6, 11d4 <create_chain+0x70>
    11c8:	4628      	mov	r0, r5
    11ca:	4631      	mov	r1, r6
    11cc:	4622      	mov	r2, r4
    11ce:	f7ff ff61 	bl	1094 <put_fat>
    11d2:	b950      	cbnz	r0, 11ea <create_chain+0x86>
    11d4:	692b      	ldr	r3, [r5, #16]
    11d6:	60ec      	str	r4, [r5, #12]
    11d8:	f1b3 3fff 	cmp.w	r3, #4294967295
    11dc:	d00f      	beq.n	11fe <create_chain+0x9a>
    11de:	3b01      	subs	r3, #1
    11e0:	612b      	str	r3, [r5, #16]
    11e2:	2301      	movs	r3, #1
    11e4:	716b      	strb	r3, [r5, #5]
    11e6:	4620      	mov	r0, r4
    11e8:	bdf8      	pop	{r3, r4, r5, r6, r7, pc}
    11ea:	2801      	cmp	r0, #1
    11ec:	bf14      	ite	ne
    11ee:	2001      	movne	r0, #1
    11f0:	f04f 30ff 	moveq.w	r0, #4294967295
    11f4:	bdf8      	pop	{r3, r4, r5, r6, r7, pc}
    11f6:	2001      	movs	r0, #1
    11f8:	bdf8      	pop	{r3, r4, r5, r6, r7, pc}
    11fa:	2000      	movs	r0, #0
    11fc:	bdf8      	pop	{r3, r4, r5, r6, r7, pc}
    11fe:	4620      	mov	r0, r4
    1200:	bdf8      	pop	{r3, r4, r5, r6, r7, pc}

00001202 <dir_next>:
    1202:	e92d 41f0 	stmdb	sp!, {r4, r5, r6, r7, r8, lr}
    1206:	88c6      	ldrh	r6, [r0, #6]
    1208:	4604      	mov	r4, r0
    120a:	3601      	adds	r6, #1
    120c:	b2b6      	uxth	r6, r6
    120e:	460f      	mov	r7, r1
    1210:	2e00      	cmp	r6, #0
    1212:	d06b      	beq.n	12ec <dir_next+0xea>
    1214:	6903      	ldr	r3, [r0, #16]
    1216:	2b00      	cmp	r3, #0
    1218:	d068      	beq.n	12ec <dir_next+0xea>
    121a:	f016 0f0f 	tst.w	r6, #15
    121e:	d15a      	bne.n	12d6 <dir_next+0xd4>
    1220:	68c1      	ldr	r1, [r0, #12]
    1222:	3301      	adds	r3, #1
    1224:	6103      	str	r3, [r0, #16]
    1226:	6800      	ldr	r0, [r0, #0]
    1228:	b919      	cbnz	r1, 1232 <dir_next+0x30>
    122a:	8903      	ldrh	r3, [r0, #8]
    122c:	42b3      	cmp	r3, r6
    122e:	d852      	bhi.n	12d6 <dir_next+0xd4>
    1230:	e05c      	b.n	12ec <dir_next+0xea>
    1232:	7883      	ldrb	r3, [r0, #2]
    1234:	3b01      	subs	r3, #1
    1236:	ea13 1316 	ands.w	r3, r3, r6, lsr #4
    123a:	d14c      	bne.n	12d6 <dir_next+0xd4>
    123c:	f7ff fe9e 	bl	f7c <get_fat>
    1240:	2801      	cmp	r0, #1
    1242:	4605      	mov	r5, r0
    1244:	d958      	bls.n	12f8 <dir_next+0xf6>
    1246:	f1b0 3fff 	cmp.w	r0, #4294967295
    124a:	d058      	beq.n	12fe <dir_next+0xfc>
    124c:	6820      	ldr	r0, [r4, #0]
    124e:	6983      	ldr	r3, [r0, #24]
    1250:	429d      	cmp	r5, r3
    1252:	d33a      	bcc.n	12ca <dir_next+0xc8>
    1254:	2f00      	cmp	r7, #0
    1256:	d049      	beq.n	12ec <dir_next+0xea>
    1258:	68e1      	ldr	r1, [r4, #12]
    125a:	f7ff ff83 	bl	1164 <create_chain>
    125e:	4605      	mov	r5, r0
    1260:	2800      	cmp	r0, #0
    1262:	d046      	beq.n	12f2 <dir_next+0xf0>
    1264:	2801      	cmp	r0, #1
    1266:	d047      	beq.n	12f8 <dir_next+0xf6>
    1268:	f1b0 3fff 	cmp.w	r0, #4294967295
    126c:	d047      	beq.n	12fe <dir_next+0xfc>
    126e:	6820      	ldr	r0, [r4, #0]
    1270:	2100      	movs	r1, #0
    1272:	f7ff fd02 	bl	c7a <move_window>
    1276:	4607      	mov	r7, r0
    1278:	2800      	cmp	r0, #0
    127a:	d140      	bne.n	12fe <dir_next+0xfc>
    127c:	6820      	ldr	r0, [r4, #0]
    127e:	4639      	mov	r1, r7
    1280:	3030      	adds	r0, #48	; 0x30
    1282:	f44f 7200 	mov.w	r2, #512	; 0x200
    1286:	f7ff fcdf 	bl	c48 <mem_set>
    128a:	f8d4 8000 	ldr.w	r8, [r4]
    128e:	4629      	mov	r1, r5
    1290:	4640      	mov	r0, r8
    1292:	f7ff fe67 	bl	f64 <clust2sect>
    1296:	f8c8 002c 	str.w	r0, [r8, #44]	; 0x2c
    129a:	e00f      	b.n	12bc <dir_next+0xba>
    129c:	f04f 0801 	mov.w	r8, #1
    12a0:	f883 8004 	strb.w	r8, [r3, #4]
    12a4:	6820      	ldr	r0, [r4, #0]
    12a6:	2100      	movs	r1, #0
    12a8:	f7ff fce7 	bl	c7a <move_window>
    12ac:	2800      	cmp	r0, #0
    12ae:	d129      	bne.n	1304 <dir_next+0x102>
    12b0:	6823      	ldr	r3, [r4, #0]
    12b2:	4447      	add	r7, r8
    12b4:	6ada      	ldr	r2, [r3, #44]	; 0x2c
    12b6:	b2ff      	uxtb	r7, r7
    12b8:	4442      	add	r2, r8
    12ba:	62da      	str	r2, [r3, #44]	; 0x2c
    12bc:	6823      	ldr	r3, [r4, #0]
    12be:	789a      	ldrb	r2, [r3, #2]
    12c0:	42ba      	cmp	r2, r7
    12c2:	d8eb      	bhi.n	129c <dir_next+0x9a>
    12c4:	6ada      	ldr	r2, [r3, #44]	; 0x2c
    12c6:	1bd7      	subs	r7, r2, r7
    12c8:	62df      	str	r7, [r3, #44]	; 0x2c
    12ca:	60e5      	str	r5, [r4, #12]
    12cc:	6820      	ldr	r0, [r4, #0]
    12ce:	4629      	mov	r1, r5
    12d0:	f7ff fe48 	bl	f64 <clust2sect>
    12d4:	6120      	str	r0, [r4, #16]
    12d6:	6823      	ldr	r3, [r4, #0]
    12d8:	80e6      	strh	r6, [r4, #6]
    12da:	f006 060f 	and.w	r6, r6, #15
    12de:	3330      	adds	r3, #48	; 0x30
    12e0:	0176      	lsls	r6, r6, #5
    12e2:	199e      	adds	r6, r3, r6
    12e4:	6166      	str	r6, [r4, #20]
    12e6:	2000      	movs	r0, #0
    12e8:	e8bd 81f0 	ldmia.w	sp!, {r4, r5, r6, r7, r8, pc}
    12ec:	2004      	movs	r0, #4
    12ee:	e8bd 81f0 	ldmia.w	sp!, {r4, r5, r6, r7, r8, pc}
    12f2:	2007      	movs	r0, #7
    12f4:	e8bd 81f0 	ldmia.w	sp!, {r4, r5, r6, r7, r8, pc}
    12f8:	2002      	movs	r0, #2
    12fa:	e8bd 81f0 	ldmia.w	sp!, {r4, r5, r6, r7, r8, pc}
    12fe:	2001      	movs	r0, #1
    1300:	e8bd 81f0 	ldmia.w	sp!, {r4, r5, r6, r7, r8, pc}
    1304:	4640      	mov	r0, r8
    1306:	e8bd 81f0 	ldmia.w	sp!, {r4, r5, r6, r7, r8, pc}
	...

0000130c <follow_path>:
    130c:	e92d 41f0 	stmdb	sp!, {r4, r5, r6, r7, r8, lr}
    1310:	780b      	ldrb	r3, [r1, #0]
    1312:	4604      	mov	r4, r0
    1314:	2b2f      	cmp	r3, #47	; 0x2f
    1316:	d001      	beq.n	131c <follow_path+0x10>
    1318:	2b5c      	cmp	r3, #92	; 0x5c
    131a:	d100      	bne.n	131e <follow_path+0x12>
    131c:	3101      	adds	r1, #1
    131e:	2500      	movs	r5, #0
    1320:	60a5      	str	r5, [r4, #8]
    1322:	780b      	ldrb	r3, [r1, #0]
    1324:	2b1f      	cmp	r3, #31
    1326:	d805      	bhi.n	1334 <follow_path+0x28>
    1328:	4620      	mov	r0, r4
    132a:	f7ff fe7c 	bl	1026 <dir_sdi.clone.1>
    132e:	6165      	str	r5, [r4, #20]
    1330:	e8bd 81f0 	ldmia.w	sp!, {r4, r5, r6, r7, r8, pc}
    1334:	780b      	ldrb	r3, [r1, #0]
    1336:	460e      	mov	r6, r1
    1338:	3101      	adds	r1, #1
    133a:	2b2f      	cmp	r3, #47	; 0x2f
    133c:	d0fa      	beq.n	1334 <follow_path+0x28>
    133e:	2b5c      	cmp	r3, #92	; 0x5c
    1340:	d0f8      	beq.n	1334 <follow_path+0x28>
    1342:	69a5      	ldr	r5, [r4, #24]
    1344:	2120      	movs	r1, #32
    1346:	4628      	mov	r0, r5
    1348:	220b      	movs	r2, #11
    134a:	f7ff fc7d 	bl	c48 <mem_set>
    134e:	2100      	movs	r1, #0
    1350:	460f      	mov	r7, r1
    1352:	2008      	movs	r0, #8
    1354:	460a      	mov	r2, r1
    1356:	5df3      	ldrb	r3, [r6, r7]
    1358:	3701      	adds	r7, #1
    135a:	2b20      	cmp	r3, #32
    135c:	d937      	bls.n	13ce <follow_path+0xc2>
    135e:	2b2f      	cmp	r3, #47	; 0x2f
    1360:	d037      	beq.n	13d2 <follow_path+0xc6>
    1362:	2b5c      	cmp	r3, #92	; 0x5c
    1364:	d035      	beq.n	13d2 <follow_path+0xc6>
    1366:	2b2e      	cmp	r3, #46	; 0x2e
    1368:	d001      	beq.n	136e <follow_path+0x62>
    136a:	4281      	cmp	r1, r0
    136c:	d30a      	bcc.n	1384 <follow_path+0x78>
    136e:	2808      	cmp	r0, #8
    1370:	f040 8084 	bne.w	147c <follow_path+0x170>
    1374:	2b2e      	cmp	r3, #46	; 0x2e
    1376:	f040 8081 	bne.w	147c <follow_path+0x170>
    137a:	0092      	lsls	r2, r2, #2
    137c:	4601      	mov	r1, r0
    137e:	b2d2      	uxtb	r2, r2
    1380:	3003      	adds	r0, #3
    1382:	e7e8      	b.n	1356 <follow_path+0x4a>
    1384:	f013 0f80 	tst.w	r3, #128	; 0x80
    1388:	d178      	bne.n	147c <follow_path+0x170>
    138a:	f8df c0fc 	ldr.w	ip, [pc, #252]	; 1488 <follow_path+0x17c>
    138e:	f81c 8f01 	ldrb.w	r8, [ip, #1]!
    1392:	f1b8 0f00 	cmp.w	r8, #0
    1396:	d002      	beq.n	139e <follow_path+0x92>
    1398:	4598      	cmp	r8, r3
    139a:	d1f8      	bne.n	138e <follow_path+0x82>
    139c:	e06e      	b.n	147c <follow_path+0x170>
    139e:	f1a3 0c41 	sub.w	ip, r3, #65	; 0x41
    13a2:	fa5f fc8c 	uxtb.w	ip, ip
    13a6:	f1bc 0f19 	cmp.w	ip, #25
    13aa:	d802      	bhi.n	13b2 <follow_path+0xa6>
    13ac:	f042 0202 	orr.w	r2, r2, #2
    13b0:	e00a      	b.n	13c8 <follow_path+0xbc>
    13b2:	f1a3 0c61 	sub.w	ip, r3, #97	; 0x61
    13b6:	fa5f fc8c 	uxtb.w	ip, ip
    13ba:	f1bc 0f19 	cmp.w	ip, #25
    13be:	d803      	bhi.n	13c8 <follow_path+0xbc>
    13c0:	3b20      	subs	r3, #32
    13c2:	f042 0201 	orr.w	r2, r2, #1
    13c6:	b2db      	uxtb	r3, r3
    13c8:	546b      	strb	r3, [r5, r1]
    13ca:	3101      	adds	r1, #1
    13cc:	e7c3      	b.n	1356 <follow_path+0x4a>
    13ce:	2304      	movs	r3, #4
    13d0:	e000      	b.n	13d4 <follow_path+0xc8>
    13d2:	2300      	movs	r3, #0
    13d4:	2900      	cmp	r1, #0
    13d6:	d051      	beq.n	147c <follow_path+0x170>
    13d8:	7829      	ldrb	r1, [r5, #0]
    13da:	29e5      	cmp	r1, #229	; 0xe5
    13dc:	d101      	bne.n	13e2 <follow_path+0xd6>
    13de:	39e0      	subs	r1, #224	; 0xe0
    13e0:	7029      	strb	r1, [r5, #0]
    13e2:	2808      	cmp	r0, #8
    13e4:	d101      	bne.n	13ea <follow_path+0xde>
    13e6:	0092      	lsls	r2, r2, #2
    13e8:	b2d2      	uxtb	r2, r2
    13ea:	f002 0103 	and.w	r1, r2, #3
    13ee:	2901      	cmp	r1, #1
    13f0:	f002 020c 	and.w	r2, r2, #12
    13f4:	bf08      	it	eq
    13f6:	f043 0310 	orreq.w	r3, r3, #16
    13fa:	2a04      	cmp	r2, #4
    13fc:	bf08      	it	eq
    13fe:	f043 0308 	orreq.w	r3, r3, #8
    1402:	72eb      	strb	r3, [r5, #11]
    1404:	4620      	mov	r0, r4
    1406:	f7ff fe0e 	bl	1026 <dir_sdi.clone.1>
    140a:	b9e0      	cbnz	r0, 1446 <follow_path+0x13a>
    140c:	6820      	ldr	r0, [r4, #0]
    140e:	6921      	ldr	r1, [r4, #16]
    1410:	f7ff fc33 	bl	c7a <move_window>
    1414:	b9b8      	cbnz	r0, 1446 <follow_path+0x13a>
    1416:	6962      	ldr	r2, [r4, #20]
    1418:	7813      	ldrb	r3, [r2, #0]
    141a:	b19b      	cbz	r3, 1444 <follow_path+0x138>
    141c:	7ad3      	ldrb	r3, [r2, #11]
    141e:	f013 0f08 	tst.w	r3, #8
    1422:	d10a      	bne.n	143a <follow_path+0x12e>
    1424:	69a1      	ldr	r1, [r4, #24]
    1426:	4603      	mov	r3, r0
    1428:	e001      	b.n	142e <follow_path+0x122>
    142a:	2b0b      	cmp	r3, #11
    142c:	d00b      	beq.n	1446 <follow_path+0x13a>
    142e:	f812 c003 	ldrb.w	ip, [r2, r3]
    1432:	5ccd      	ldrb	r5, [r1, r3]
    1434:	3301      	adds	r3, #1
    1436:	45ac      	cmp	ip, r5
    1438:	d0f7      	beq.n	142a <follow_path+0x11e>
    143a:	4620      	mov	r0, r4
    143c:	2100      	movs	r1, #0
    143e:	f7ff fee0 	bl	1202 <dir_next>
    1442:	e7e2      	b.n	140a <follow_path+0xfe>
    1444:	2004      	movs	r0, #4
    1446:	69a3      	ldr	r3, [r4, #24]
    1448:	7adb      	ldrb	r3, [r3, #11]
    144a:	b140      	cbz	r0, 145e <follow_path+0x152>
    144c:	2804      	cmp	r0, #4
    144e:	d119      	bne.n	1484 <follow_path+0x178>
    1450:	f003 0304 	and.w	r3, r3, #4
    1454:	2b00      	cmp	r3, #0
    1456:	bf08      	it	eq
    1458:	2005      	moveq	r0, #5
    145a:	e8bd 81f0 	ldmia.w	sp!, {r4, r5, r6, r7, r8, pc}
    145e:	f013 0f04 	tst.w	r3, #4
    1462:	d10f      	bne.n	1484 <follow_path+0x178>
    1464:	6963      	ldr	r3, [r4, #20]
    1466:	7ada      	ldrb	r2, [r3, #11]
    1468:	f012 0f10 	tst.w	r2, #16
    146c:	d009      	beq.n	1482 <follow_path+0x176>
    146e:	8a9a      	ldrh	r2, [r3, #20]
    1470:	8b5b      	ldrh	r3, [r3, #26]
    1472:	19f1      	adds	r1, r6, r7
    1474:	ea43 4302 	orr.w	r3, r3, r2, lsl #16
    1478:	60a3      	str	r3, [r4, #8]
    147a:	e75b      	b.n	1334 <follow_path+0x28>
    147c:	2006      	movs	r0, #6
    147e:	e8bd 81f0 	ldmia.w	sp!, {r4, r5, r6, r7, r8, pc}
    1482:	2005      	movs	r0, #5
    1484:	e8bd 81f0 	ldmia.w	sp!, {r4, r5, r6, r7, r8, pc}
    1488:	000060d7 	.word	0x000060d7

0000148c <f_mount>:
    148c:	b948      	cbnz	r0, 14a2 <f_mount+0x16>
    148e:	4a06      	ldr	r2, [pc, #24]	; (14a8 <f_mount+0x1c>)
    1490:	6813      	ldr	r3, [r2, #0]
    1492:	b103      	cbz	r3, 1496 <f_mount+0xa>
    1494:	7018      	strb	r0, [r3, #0]
    1496:	b109      	cbz	r1, 149c <f_mount+0x10>
    1498:	2300      	movs	r3, #0
    149a:	700b      	strb	r3, [r1, #0]
    149c:	6011      	str	r1, [r2, #0]
    149e:	2000      	movs	r0, #0
    14a0:	4770      	bx	lr
    14a2:	200b      	movs	r0, #11
    14a4:	4770      	bx	lr
    14a6:	bf00      	nop
    14a8:	100002d4 	.word	0x100002d4

000014ac <f_open>:
    14ac:	e92d 4ff0 	stmdb	sp!, {r4, r5, r6, r7, r8, r9, sl, fp, lr}
    14b0:	b08d      	sub	sp, #52	; 0x34
    14b2:	2300      	movs	r3, #0
    14b4:	4607      	mov	r7, r0
    14b6:	f002 061f 	and.w	r6, r2, #31
    14ba:	a80c      	add	r0, sp, #48	; 0x30
    14bc:	f840 1d2c 	str.w	r1, [r0, #-44]!
    14c0:	603b      	str	r3, [r7, #0]
    14c2:	a902      	add	r1, sp, #8
    14c4:	f006 021e 	and.w	r2, r6, #30
    14c8:	f7ff fc3c 	bl	d44 <chk_mounted>
    14cc:	ab09      	add	r3, sp, #36	; 0x24
    14ce:	9308      	str	r3, [sp, #32]
    14d0:	4604      	mov	r4, r0
    14d2:	b920      	cbnz	r0, 14de <f_open+0x32>
    14d4:	a802      	add	r0, sp, #8
    14d6:	9901      	ldr	r1, [sp, #4]
    14d8:	f7ff ff18 	bl	130c <follow_path>
    14dc:	4604      	mov	r4, r0
    14de:	9d07      	ldr	r5, [sp, #28]
    14e0:	b914      	cbnz	r4, 14e8 <f_open+0x3c>
    14e2:	2d00      	cmp	r5, #0
    14e4:	bf08      	it	eq
    14e6:	2406      	moveq	r4, #6
    14e8:	f016 0f1c 	tst.w	r6, #28
    14ec:	f000 8081 	beq.w	15f2 <f_open+0x146>
    14f0:	2c00      	cmp	r4, #0
    14f2:	d02d      	beq.n	1550 <f_open+0xa4>
    14f4:	2c04      	cmp	r4, #4
    14f6:	d125      	bne.n	1544 <f_open+0x98>
    14f8:	a802      	add	r0, sp, #8
    14fa:	f7ff fd94 	bl	1026 <dir_sdi.clone.1>
    14fe:	4604      	mov	r4, r0
    1500:	bb00      	cbnz	r0, 1544 <f_open+0x98>
    1502:	9802      	ldr	r0, [sp, #8]
    1504:	9906      	ldr	r1, [sp, #24]
    1506:	f7ff fbb8 	bl	c7a <move_window>
    150a:	4604      	mov	r4, r0
    150c:	b9d0      	cbnz	r0, 1544 <f_open+0x98>
    150e:	9b07      	ldr	r3, [sp, #28]
    1510:	781b      	ldrb	r3, [r3, #0]
    1512:	2be5      	cmp	r3, #229	; 0xe5
    1514:	f000 8093 	beq.w	163e <f_open+0x192>
    1518:	2b00      	cmp	r3, #0
    151a:	f000 8090 	beq.w	163e <f_open+0x192>
    151e:	a802      	add	r0, sp, #8
    1520:	2101      	movs	r1, #1
    1522:	f7ff fe6e 	bl	1202 <dir_next>
    1526:	e7ea      	b.n	14fe <f_open+0x52>
    1528:	9d07      	ldr	r5, [sp, #28]
    152a:	4621      	mov	r1, r4
    152c:	4628      	mov	r0, r5
    152e:	2220      	movs	r2, #32
    1530:	f7ff fb8a 	bl	c48 <mem_set>
    1534:	220b      	movs	r2, #11
    1536:	4628      	mov	r0, r5
    1538:	9908      	ldr	r1, [sp, #32]
    153a:	f7ff fb6b 	bl	c14 <mem_cpy>
    153e:	9b02      	ldr	r3, [sp, #8]
    1540:	2201      	movs	r2, #1
    1542:	711a      	strb	r2, [r3, #4]
    1544:	9d07      	ldr	r5, [sp, #28]
    1546:	2c00      	cmp	r4, #0
    1548:	d175      	bne.n	1636 <f_open+0x18a>
    154a:	f046 0608 	orr.w	r6, r6, #8
    154e:	e006      	b.n	155e <f_open+0xb2>
    1550:	7aeb      	ldrb	r3, [r5, #11]
    1552:	f013 0f11 	tst.w	r3, #17
    1556:	d17f      	bne.n	1658 <f_open+0x1ac>
    1558:	f016 0f04 	tst.w	r6, #4
    155c:	d178      	bne.n	1650 <f_open+0x1a4>
    155e:	f016 0f08 	tst.w	r6, #8
    1562:	d051      	beq.n	1608 <f_open+0x15c>
    1564:	f000 fd4c 	bl	2000 <get_fattime>
    1568:	2300      	movs	r3, #0
    156a:	72eb      	strb	r3, [r5, #11]
    156c:	f8b5 a014 	ldrh.w	sl, [r5, #20]
    1570:	8b6a      	ldrh	r2, [r5, #26]
    1572:	f8dd 8008 	ldr.w	r8, [sp, #8]
    1576:	61eb      	str	r3, [r5, #28]
    1578:	836b      	strh	r3, [r5, #26]
    157a:	82ab      	strh	r3, [r5, #20]
    157c:	3301      	adds	r3, #1
    157e:	ea52 4a0a 	orrs.w	sl, r2, sl, lsl #16
    1582:	f8c5 000e 	str.w	r0, [r5, #14]
    1586:	f888 3004 	strb.w	r3, [r8, #4]
    158a:	d03d      	beq.n	1608 <f_open+0x15c>
    158c:	459a      	cmp	sl, r3
    158e:	f8d8 b02c 	ldr.w	fp, [r8, #44]	; 0x2c
    1592:	d02a      	beq.n	15ea <f_open+0x13e>
    1594:	f8d8 3018 	ldr.w	r3, [r8, #24]
    1598:	459a      	cmp	sl, r3
    159a:	d226      	bcs.n	15ea <f_open+0x13e>
    159c:	4654      	mov	r4, sl
    159e:	e01f      	b.n	15e0 <f_open+0x134>
    15a0:	4640      	mov	r0, r8
    15a2:	4621      	mov	r1, r4
    15a4:	f7ff fcea 	bl	f7c <get_fat>
    15a8:	4681      	mov	r9, r0
    15aa:	2800      	cmp	r0, #0
    15ac:	d056      	beq.n	165c <f_open+0x1b0>
    15ae:	2801      	cmp	r0, #1
    15b0:	d01b      	beq.n	15ea <f_open+0x13e>
    15b2:	f1b0 3fff 	cmp.w	r0, #4294967295
    15b6:	d01a      	beq.n	15ee <f_open+0x142>
    15b8:	4621      	mov	r1, r4
    15ba:	4640      	mov	r0, r8
    15bc:	2200      	movs	r2, #0
    15be:	f7ff fd69 	bl	1094 <put_fat>
    15c2:	4604      	mov	r4, r0
    15c4:	2800      	cmp	r0, #0
    15c6:	d136      	bne.n	1636 <f_open+0x18a>
    15c8:	f8d8 3010 	ldr.w	r3, [r8, #16]
    15cc:	f1b3 3fff 	cmp.w	r3, #4294967295
    15d0:	d005      	beq.n	15de <f_open+0x132>
    15d2:	3301      	adds	r3, #1
    15d4:	f8c8 3010 	str.w	r3, [r8, #16]
    15d8:	2301      	movs	r3, #1
    15da:	f888 3005 	strb.w	r3, [r8, #5]
    15de:	464c      	mov	r4, r9
    15e0:	f8d8 3018 	ldr.w	r3, [r8, #24]
    15e4:	429c      	cmp	r4, r3
    15e6:	d3db      	bcc.n	15a0 <f_open+0xf4>
    15e8:	e038      	b.n	165c <f_open+0x1b0>
    15ea:	2402      	movs	r4, #2
    15ec:	e023      	b.n	1636 <f_open+0x18a>
    15ee:	2401      	movs	r4, #1
    15f0:	e021      	b.n	1636 <f_open+0x18a>
    15f2:	bb04      	cbnz	r4, 1636 <f_open+0x18a>
    15f4:	7aeb      	ldrb	r3, [r5, #11]
    15f6:	f013 0f10 	tst.w	r3, #16
    15fa:	d12b      	bne.n	1654 <f_open+0x1a8>
    15fc:	f016 0f02 	tst.w	r6, #2
    1600:	d002      	beq.n	1608 <f_open+0x15c>
    1602:	f013 0f01 	tst.w	r3, #1
    1606:	d127      	bne.n	1658 <f_open+0x1ac>
    1608:	9b02      	ldr	r3, [sp, #8]
    160a:	f016 0f08 	tst.w	r6, #8
    160e:	6ada      	ldr	r2, [r3, #44]	; 0x2c
    1610:	bf18      	it	ne
    1612:	f046 0620 	orrne.w	r6, r6, #32
    1616:	71be      	strb	r6, [r7, #6]
    1618:	8aa9      	ldrh	r1, [r5, #20]
    161a:	61fa      	str	r2, [r7, #28]
    161c:	8b6a      	ldrh	r2, [r5, #26]
    161e:	2400      	movs	r4, #0
    1620:	ea42 4201 	orr.w	r2, r2, r1, lsl #16
    1624:	613a      	str	r2, [r7, #16]
    1626:	69ea      	ldr	r2, [r5, #28]
    1628:	603b      	str	r3, [r7, #0]
    162a:	88db      	ldrh	r3, [r3, #6]
    162c:	623d      	str	r5, [r7, #32]
    162e:	60fa      	str	r2, [r7, #12]
    1630:	60bc      	str	r4, [r7, #8]
    1632:	61bc      	str	r4, [r7, #24]
    1634:	80bb      	strh	r3, [r7, #4]
    1636:	4620      	mov	r0, r4
    1638:	b00d      	add	sp, #52	; 0x34
    163a:	e8bd 8ff0 	ldmia.w	sp!, {r4, r5, r6, r7, r8, r9, sl, fp, pc}
    163e:	9802      	ldr	r0, [sp, #8]
    1640:	9906      	ldr	r1, [sp, #24]
    1642:	f7ff fb1a 	bl	c7a <move_window>
    1646:	4604      	mov	r4, r0
    1648:	2800      	cmp	r0, #0
    164a:	f47f af7b 	bne.w	1544 <f_open+0x98>
    164e:	e76b      	b.n	1528 <f_open+0x7c>
    1650:	2408      	movs	r4, #8
    1652:	e7f0      	b.n	1636 <f_open+0x18a>
    1654:	2404      	movs	r4, #4
    1656:	e7ee      	b.n	1636 <f_open+0x18a>
    1658:	2407      	movs	r4, #7
    165a:	e7ec      	b.n	1636 <f_open+0x18a>
    165c:	9802      	ldr	r0, [sp, #8]
    165e:	f10a 33ff 	add.w	r3, sl, #4294967295
    1662:	60c3      	str	r3, [r0, #12]
    1664:	4659      	mov	r1, fp
    1666:	f7ff fb08 	bl	c7a <move_window>
    166a:	4604      	mov	r4, r0
    166c:	2800      	cmp	r0, #0
    166e:	d0cb      	beq.n	1608 <f_open+0x15c>
    1670:	e7e1      	b.n	1636 <f_open+0x18a>

00001672 <f_read>:
    1672:	e92d 4ff7 	stmdb	sp!, {r0, r1, r2, r4, r5, r6, r7, r8, r9, sl, fp, lr}
    1676:	4604      	mov	r4, r0
    1678:	4699      	mov	r9, r3
    167a:	2300      	movs	r3, #0
    167c:	460e      	mov	r6, r1
    167e:	f8c9 3000 	str.w	r3, [r9]
    1682:	6800      	ldr	r0, [r0, #0]
    1684:	88a1      	ldrh	r1, [r4, #4]
    1686:	4617      	mov	r7, r2
    1688:	f7ff fae4 	bl	c54 <validate>
    168c:	4605      	mov	r5, r0
    168e:	2800      	cmp	r0, #0
    1690:	f040 8098 	bne.w	17c4 <f_read+0x152>
    1694:	79a3      	ldrb	r3, [r4, #6]
    1696:	f013 0f80 	tst.w	r3, #128	; 0x80
    169a:	f040 8090 	bne.w	17be <f_read+0x14c>
    169e:	f013 0f01 	tst.w	r3, #1
    16a2:	f000 808e 	beq.w	17c2 <f_read+0x150>
    16a6:	68e2      	ldr	r2, [r4, #12]
    16a8:	68a3      	ldr	r3, [r4, #8]
    16aa:	ebc3 0802 	rsb	r8, r3, r2
    16ae:	4547      	cmp	r7, r8
    16b0:	bf38      	it	cc
    16b2:	46b8      	movcc	r8, r7
    16b4:	e07e      	b.n	17b4 <f_read+0x142>
    16b6:	68a3      	ldr	r3, [r4, #8]
    16b8:	05da      	lsls	r2, r3, #23
    16ba:	0dd2      	lsrs	r2, r2, #23
    16bc:	2a00      	cmp	r2, #0
    16be:	d151      	bne.n	1764 <f_read+0xf2>
    16c0:	6820      	ldr	r0, [r4, #0]
    16c2:	f890 a002 	ldrb.w	sl, [r0, #2]
    16c6:	f10a 3aff 	add.w	sl, sl, #4294967295
    16ca:	ea0a 2a53 	and.w	sl, sl, r3, lsr #9
    16ce:	fa5f fa8a 	uxtb.w	sl, sl
    16d2:	f1ba 0f00 	cmp.w	sl, #0
    16d6:	d10b      	bne.n	16f0 <f_read+0x7e>
    16d8:	b90b      	cbnz	r3, 16de <f_read+0x6c>
    16da:	6920      	ldr	r0, [r4, #16]
    16dc:	e002      	b.n	16e4 <f_read+0x72>
    16de:	6961      	ldr	r1, [r4, #20]
    16e0:	f7ff fc4c 	bl	f7c <get_fat>
    16e4:	2801      	cmp	r0, #1
    16e6:	d90a      	bls.n	16fe <f_read+0x8c>
    16e8:	f1b0 3fff 	cmp.w	r0, #4294967295
    16ec:	d040      	beq.n	1770 <f_read+0xfe>
    16ee:	6160      	str	r0, [r4, #20]
    16f0:	f8d4 b000 	ldr.w	fp, [r4]
    16f4:	6961      	ldr	r1, [r4, #20]
    16f6:	4658      	mov	r0, fp
    16f8:	f7ff fc34 	bl	f64 <clust2sect>
    16fc:	b920      	cbnz	r0, 1708 <f_read+0x96>
    16fe:	79a3      	ldrb	r3, [r4, #6]
    1700:	f063 037f 	orn	r3, r3, #127	; 0x7f
    1704:	71a3      	strb	r3, [r4, #6]
    1706:	e05a      	b.n	17be <f_read+0x14c>
    1708:	ea5f 2758 	movs.w	r7, r8, lsr #9
    170c:	eb00 0c0a 	add.w	ip, r0, sl
    1710:	d026      	beq.n	1760 <f_read+0xee>
    1712:	f89b 3002 	ldrb.w	r3, [fp, #2]
    1716:	eb07 020a 	add.w	r2, r7, sl
    171a:	429a      	cmp	r2, r3
    171c:	bf88      	it	hi
    171e:	ebca 0703 	rsbhi	r7, sl, r3
    1722:	f89b 0001 	ldrb.w	r0, [fp, #1]
    1726:	4662      	mov	r2, ip
    1728:	4631      	mov	r1, r6
    172a:	b2fb      	uxtb	r3, r7
    172c:	f8cd c004 	str.w	ip, [sp, #4]
    1730:	f000 faac 	bl	1c8c <disk_read>
    1734:	f8dd c004 	ldr.w	ip, [sp, #4]
    1738:	b9d0      	cbnz	r0, 1770 <f_read+0xfe>
    173a:	6821      	ldr	r1, [r4, #0]
    173c:	790b      	ldrb	r3, [r1, #4]
    173e:	b16b      	cbz	r3, 175c <f_read+0xea>
    1740:	6acb      	ldr	r3, [r1, #44]	; 0x2c
    1742:	ebcc 0c03 	rsb	ip, ip, r3
    1746:	45bc      	cmp	ip, r7
    1748:	d208      	bcs.n	175c <f_read+0xea>
    174a:	ea4f 2c4c 	mov.w	ip, ip, lsl #9
    174e:	eb06 000c 	add.w	r0, r6, ip
    1752:	3130      	adds	r1, #48	; 0x30
    1754:	f44f 7200 	mov.w	r2, #512	; 0x200
    1758:	f7ff fa5c 	bl	c14 <mem_cpy>
    175c:	027f      	lsls	r7, r7, #9
    175e:	e01e      	b.n	179e <f_read+0x12c>
    1760:	f8c4 c018 	str.w	ip, [r4, #24]
    1764:	6820      	ldr	r0, [r4, #0]
    1766:	69a1      	ldr	r1, [r4, #24]
    1768:	68a7      	ldr	r7, [r4, #8]
    176a:	f7ff fa86 	bl	c7a <move_window>
    176e:	b128      	cbz	r0, 177c <f_read+0x10a>
    1770:	79a3      	ldrb	r3, [r4, #6]
    1772:	2501      	movs	r5, #1
    1774:	f063 037f 	orn	r3, r3, #127	; 0x7f
    1778:	71a3      	strb	r3, [r4, #6]
    177a:	e023      	b.n	17c4 <f_read+0x152>
    177c:	05ff      	lsls	r7, r7, #23
    177e:	68a3      	ldr	r3, [r4, #8]
    1780:	0dff      	lsrs	r7, r7, #23
    1782:	6821      	ldr	r1, [r4, #0]
    1784:	f5c7 7700 	rsb	r7, r7, #512	; 0x200
    1788:	05db      	lsls	r3, r3, #23
    178a:	45b8      	cmp	r8, r7
    178c:	bf38      	it	cc
    178e:	4647      	movcc	r7, r8
    1790:	3130      	adds	r1, #48	; 0x30
    1792:	0ddb      	lsrs	r3, r3, #23
    1794:	4630      	mov	r0, r6
    1796:	18c9      	adds	r1, r1, r3
    1798:	463a      	mov	r2, r7
    179a:	f7ff fa3b 	bl	c14 <mem_cpy>
    179e:	68a3      	ldr	r3, [r4, #8]
    17a0:	19f6      	adds	r6, r6, r7
    17a2:	19db      	adds	r3, r3, r7
    17a4:	60a3      	str	r3, [r4, #8]
    17a6:	f8d9 3000 	ldr.w	r3, [r9]
    17aa:	ebc7 0808 	rsb	r8, r7, r8
    17ae:	19db      	adds	r3, r3, r7
    17b0:	f8c9 3000 	str.w	r3, [r9]
    17b4:	f1b8 0f00 	cmp.w	r8, #0
    17b8:	f47f af7d 	bne.w	16b6 <f_read+0x44>
    17bc:	e002      	b.n	17c4 <f_read+0x152>
    17be:	2502      	movs	r5, #2
    17c0:	e000      	b.n	17c4 <f_read+0x152>
    17c2:	2507      	movs	r5, #7
    17c4:	4628      	mov	r0, r5
    17c6:	e8bd 8ffe 	ldmia.w	sp!, {r1, r2, r3, r4, r5, r6, r7, r8, r9, sl, fp, pc}

000017ca <f_write>:
    17ca:	e92d 4ff7 	stmdb	sp!, {r0, r1, r2, r4, r5, r6, r7, r8, r9, sl, fp, lr}
    17ce:	9301      	str	r3, [sp, #4]
    17d0:	4616      	mov	r6, r2
    17d2:	9a01      	ldr	r2, [sp, #4]
    17d4:	4604      	mov	r4, r0
    17d6:	2300      	movs	r3, #0
    17d8:	4688      	mov	r8, r1
    17da:	6013      	str	r3, [r2, #0]
    17dc:	6800      	ldr	r0, [r0, #0]
    17de:	88a1      	ldrh	r1, [r4, #4]
    17e0:	f7ff fa38 	bl	c54 <validate>
    17e4:	4605      	mov	r5, r0
    17e6:	2800      	cmp	r0, #0
    17e8:	f040 80b9 	bne.w	195e <f_write+0x194>
    17ec:	79a3      	ldrb	r3, [r4, #6]
    17ee:	f013 0f80 	tst.w	r3, #128	; 0x80
    17f2:	f040 80b1 	bne.w	1958 <f_write+0x18e>
    17f6:	f013 0f02 	tst.w	r3, #2
    17fa:	f000 80af 	beq.w	195c <f_write+0x192>
    17fe:	68e3      	ldr	r3, [r4, #12]
    1800:	42de      	cmn	r6, r3
    1802:	bf28      	it	cs
    1804:	2600      	movcs	r6, #0
    1806:	e09a      	b.n	193e <f_write+0x174>
    1808:	68a3      	ldr	r3, [r4, #8]
    180a:	05da      	lsls	r2, r3, #23
    180c:	0dd2      	lsrs	r2, r2, #23
    180e:	2a00      	cmp	r2, #0
    1810:	d16c      	bne.n	18ec <f_write+0x122>
    1812:	6820      	ldr	r0, [r4, #0]
    1814:	f890 b002 	ldrb.w	fp, [r0, #2]
    1818:	f10b 3bff 	add.w	fp, fp, #4294967295
    181c:	ea0b 2b53 	and.w	fp, fp, r3, lsr #9
    1820:	fa5f fb8b 	uxtb.w	fp, fp
    1824:	f1bb 0f00 	cmp.w	fp, #0
    1828:	d113      	bne.n	1852 <f_write+0x88>
    182a:	b933      	cbnz	r3, 183a <f_write+0x70>
    182c:	6921      	ldr	r1, [r4, #16]
    182e:	b951      	cbnz	r1, 1846 <f_write+0x7c>
    1830:	f7ff fc98 	bl	1164 <create_chain>
    1834:	4601      	mov	r1, r0
    1836:	6120      	str	r0, [r4, #16]
    1838:	e003      	b.n	1842 <f_write+0x78>
    183a:	6961      	ldr	r1, [r4, #20]
    183c:	f7ff fc92 	bl	1164 <create_chain>
    1840:	4601      	mov	r1, r0
    1842:	2900      	cmp	r1, #0
    1844:	d07e      	beq.n	1944 <f_write+0x17a>
    1846:	2901      	cmp	r1, #1
    1848:	d014      	beq.n	1874 <f_write+0xaa>
    184a:	f1b1 3fff 	cmp.w	r1, #4294967295
    184e:	d053      	beq.n	18f8 <f_write+0x12e>
    1850:	6161      	str	r1, [r4, #20]
    1852:	6820      	ldr	r0, [r4, #0]
    1854:	69a3      	ldr	r3, [r4, #24]
    1856:	6ac2      	ldr	r2, [r0, #44]	; 0x2c
    1858:	429a      	cmp	r2, r3
    185a:	d104      	bne.n	1866 <f_write+0x9c>
    185c:	2100      	movs	r1, #0
    185e:	f7ff fa0c 	bl	c7a <move_window>
    1862:	2800      	cmp	r0, #0
    1864:	d148      	bne.n	18f8 <f_write+0x12e>
    1866:	f8d4 a000 	ldr.w	sl, [r4]
    186a:	6961      	ldr	r1, [r4, #20]
    186c:	4650      	mov	r0, sl
    186e:	f7ff fb79 	bl	f64 <clust2sect>
    1872:	b920      	cbnz	r0, 187e <f_write+0xb4>
    1874:	79a3      	ldrb	r3, [r4, #6]
    1876:	f063 037f 	orn	r3, r3, #127	; 0x7f
    187a:	71a3      	strb	r3, [r4, #6]
    187c:	e06c      	b.n	1958 <f_write+0x18e>
    187e:	0a77      	lsrs	r7, r6, #9
    1880:	eb00 090b 	add.w	r9, r0, fp
    1884:	d024      	beq.n	18d0 <f_write+0x106>
    1886:	f89a 3002 	ldrb.w	r3, [sl, #2]
    188a:	eb07 020b 	add.w	r2, r7, fp
    188e:	429a      	cmp	r2, r3
    1890:	bf88      	it	hi
    1892:	ebcb 0703 	rsbhi	r7, fp, r3
    1896:	f89a 0001 	ldrb.w	r0, [sl, #1]
    189a:	4641      	mov	r1, r8
    189c:	464a      	mov	r2, r9
    189e:	b2fb      	uxtb	r3, r7
    18a0:	f000 f9f9 	bl	1c96 <disk_write>
    18a4:	4682      	mov	sl, r0
    18a6:	bb38      	cbnz	r0, 18f8 <f_write+0x12e>
    18a8:	6820      	ldr	r0, [r4, #0]
    18aa:	6ac3      	ldr	r3, [r0, #44]	; 0x2c
    18ac:	ebc9 0903 	rsb	r9, r9, r3
    18b0:	45b9      	cmp	r9, r7
    18b2:	d20b      	bcs.n	18cc <f_write+0x102>
    18b4:	ea4f 2949 	mov.w	r9, r9, lsl #9
    18b8:	3030      	adds	r0, #48	; 0x30
    18ba:	eb08 0109 	add.w	r1, r8, r9
    18be:	f44f 7200 	mov.w	r2, #512	; 0x200
    18c2:	f7ff f9a7 	bl	c14 <mem_cpy>
    18c6:	6823      	ldr	r3, [r4, #0]
    18c8:	f883 a004 	strb.w	sl, [r3, #4]
    18cc:	027f      	lsls	r7, r7, #9
    18ce:	e02d      	b.n	192c <f_write+0x162>
    18d0:	68a2      	ldr	r2, [r4, #8]
    18d2:	68e3      	ldr	r3, [r4, #12]
    18d4:	429a      	cmp	r2, r3
    18d6:	d307      	bcc.n	18e8 <f_write+0x11e>
    18d8:	4650      	mov	r0, sl
    18da:	4639      	mov	r1, r7
    18dc:	f7ff f9cd 	bl	c7a <move_window>
    18e0:	b950      	cbnz	r0, 18f8 <f_write+0x12e>
    18e2:	6823      	ldr	r3, [r4, #0]
    18e4:	f8c3 902c 	str.w	r9, [r3, #44]	; 0x2c
    18e8:	f8c4 9018 	str.w	r9, [r4, #24]
    18ec:	6820      	ldr	r0, [r4, #0]
    18ee:	69a1      	ldr	r1, [r4, #24]
    18f0:	68a7      	ldr	r7, [r4, #8]
    18f2:	f7ff f9c2 	bl	c7a <move_window>
    18f6:	b128      	cbz	r0, 1904 <f_write+0x13a>
    18f8:	79a3      	ldrb	r3, [r4, #6]
    18fa:	2501      	movs	r5, #1
    18fc:	f063 037f 	orn	r3, r3, #127	; 0x7f
    1900:	71a3      	strb	r3, [r4, #6]
    1902:	e02c      	b.n	195e <f_write+0x194>
    1904:	68a3      	ldr	r3, [r4, #8]
    1906:	05ff      	lsls	r7, r7, #23
    1908:	6820      	ldr	r0, [r4, #0]
    190a:	0dff      	lsrs	r7, r7, #23
    190c:	f5c7 7700 	rsb	r7, r7, #512	; 0x200
    1910:	05db      	lsls	r3, r3, #23
    1912:	0ddb      	lsrs	r3, r3, #23
    1914:	42be      	cmp	r6, r7
    1916:	bf38      	it	cc
    1918:	4637      	movcc	r7, r6
    191a:	3030      	adds	r0, #48	; 0x30
    191c:	18c0      	adds	r0, r0, r3
    191e:	463a      	mov	r2, r7
    1920:	4641      	mov	r1, r8
    1922:	f7ff f977 	bl	c14 <mem_cpy>
    1926:	6823      	ldr	r3, [r4, #0]
    1928:	2201      	movs	r2, #1
    192a:	711a      	strb	r2, [r3, #4]
    192c:	68a3      	ldr	r3, [r4, #8]
    192e:	9a01      	ldr	r2, [sp, #4]
    1930:	19db      	adds	r3, r3, r7
    1932:	60a3      	str	r3, [r4, #8]
    1934:	6813      	ldr	r3, [r2, #0]
    1936:	44b8      	add	r8, r7
    1938:	19db      	adds	r3, r3, r7
    193a:	6013      	str	r3, [r2, #0]
    193c:	1bf6      	subs	r6, r6, r7
    193e:	2e00      	cmp	r6, #0
    1940:	f47f af62 	bne.w	1808 <f_write+0x3e>
    1944:	68a3      	ldr	r3, [r4, #8]
    1946:	68e2      	ldr	r2, [r4, #12]
    1948:	4293      	cmp	r3, r2
    194a:	bf88      	it	hi
    194c:	60e3      	strhi	r3, [r4, #12]
    194e:	79a3      	ldrb	r3, [r4, #6]
    1950:	f043 0320 	orr.w	r3, r3, #32
    1954:	71a3      	strb	r3, [r4, #6]
    1956:	e002      	b.n	195e <f_write+0x194>
    1958:	2502      	movs	r5, #2
    195a:	e000      	b.n	195e <f_write+0x194>
    195c:	2507      	movs	r5, #7
    195e:	4628      	mov	r0, r5
    1960:	e8bd 8ffe 	ldmia.w	sp!, {r1, r2, r3, r4, r5, r6, r7, r8, r9, sl, fp, pc}

00001964 <f_sync>:
    1964:	b5f8      	push	{r3, r4, r5, r6, r7, lr}
    1966:	4604      	mov	r4, r0
    1968:	88a1      	ldrh	r1, [r4, #4]
    196a:	6800      	ldr	r0, [r0, #0]
    196c:	f7ff f972 	bl	c54 <validate>
    1970:	2800      	cmp	r0, #0
    1972:	d154      	bne.n	1a1e <f_sync+0xba>
    1974:	79a3      	ldrb	r3, [r4, #6]
    1976:	f013 0f20 	tst.w	r3, #32
    197a:	d050      	beq.n	1a1e <f_sync+0xba>
    197c:	6820      	ldr	r0, [r4, #0]
    197e:	69e1      	ldr	r1, [r4, #28]
    1980:	f7ff f97b 	bl	c7a <move_window>
    1984:	4606      	mov	r6, r0
    1986:	2800      	cmp	r0, #0
    1988:	d149      	bne.n	1a1e <f_sync+0xba>
    198a:	6a25      	ldr	r5, [r4, #32]
    198c:	2701      	movs	r7, #1
    198e:	7aeb      	ldrb	r3, [r5, #11]
    1990:	f043 0320 	orr.w	r3, r3, #32
    1994:	72eb      	strb	r3, [r5, #11]
    1996:	68e3      	ldr	r3, [r4, #12]
    1998:	61eb      	str	r3, [r5, #28]
    199a:	6923      	ldr	r3, [r4, #16]
    199c:	836b      	strh	r3, [r5, #26]
    199e:	0c1b      	lsrs	r3, r3, #16
    19a0:	82ab      	strh	r3, [r5, #20]
    19a2:	f000 fb2d 	bl	2000 <get_fattime>
    19a6:	f8c5 0016 	str.w	r0, [r5, #22]
    19aa:	79a3      	ldrb	r3, [r4, #6]
    19ac:	4631      	mov	r1, r6
    19ae:	f023 0320 	bic.w	r3, r3, #32
    19b2:	71a3      	strb	r3, [r4, #6]
    19b4:	6823      	ldr	r3, [r4, #0]
    19b6:	711f      	strb	r7, [r3, #4]
    19b8:	6824      	ldr	r4, [r4, #0]
    19ba:	4620      	mov	r0, r4
    19bc:	f7ff f95d 	bl	c7a <move_window>
    19c0:	4605      	mov	r5, r0
    19c2:	2800      	cmp	r0, #0
    19c4:	d12b      	bne.n	1a1e <f_sync+0xba>
    19c6:	7823      	ldrb	r3, [r4, #0]
    19c8:	2b03      	cmp	r3, #3
    19ca:	d120      	bne.n	1a0e <f_sync+0xaa>
    19cc:	7963      	ldrb	r3, [r4, #5]
    19ce:	b1f3      	cbz	r3, 1a0e <f_sync+0xaa>
    19d0:	f104 0630 	add.w	r6, r4, #48	; 0x30
    19d4:	62e0      	str	r0, [r4, #44]	; 0x2c
    19d6:	4629      	mov	r1, r5
    19d8:	4630      	mov	r0, r6
    19da:	f44f 7200 	mov.w	r2, #512	; 0x200
    19de:	f7ff f933 	bl	c48 <mem_set>
    19e2:	f64a 2355 	movw	r3, #43605	; 0xaa55
    19e6:	f8a4 322e 	strh.w	r3, [r4, #558]	; 0x22e
    19ea:	4b0d      	ldr	r3, [pc, #52]	; (1a20 <f_sync+0xbc>)
    19ec:	7860      	ldrb	r0, [r4, #1]
    19ee:	6323      	str	r3, [r4, #48]	; 0x30
    19f0:	4b0c      	ldr	r3, [pc, #48]	; (1a24 <f_sync+0xc0>)
    19f2:	4631      	mov	r1, r6
    19f4:	f8c4 3214 	str.w	r3, [r4, #532]	; 0x214
    19f8:	6923      	ldr	r3, [r4, #16]
    19fa:	6962      	ldr	r2, [r4, #20]
    19fc:	f8c4 3218 	str.w	r3, [r4, #536]	; 0x218
    1a00:	68e3      	ldr	r3, [r4, #12]
    1a02:	f8c4 321c 	str.w	r3, [r4, #540]	; 0x21c
    1a06:	463b      	mov	r3, r7
    1a08:	f000 f945 	bl	1c96 <disk_write>
    1a0c:	7165      	strb	r5, [r4, #5]
    1a0e:	2100      	movs	r1, #0
    1a10:	7860      	ldrb	r0, [r4, #1]
    1a12:	460a      	mov	r2, r1
    1a14:	f000 f944 	bl	1ca0 <disk_ioctl>
    1a18:	3800      	subs	r0, #0
    1a1a:	bf18      	it	ne
    1a1c:	2001      	movne	r0, #1
    1a1e:	bdf8      	pop	{r3, r4, r5, r6, r7, pc}
    1a20:	41615252 	.word	0x41615252
    1a24:	61417272 	.word	0x61417272

00001a28 <f_close>:
    1a28:	b510      	push	{r4, lr}
    1a2a:	4604      	mov	r4, r0
    1a2c:	f7ff ff9a 	bl	1964 <f_sync>
    1a30:	b900      	cbnz	r0, 1a34 <f_close+0xc>
    1a32:	6020      	str	r0, [r4, #0]
    1a34:	bd10      	pop	{r4, pc}

00001a36 <f_lseek>:
    1a36:	b5f8      	push	{r3, r4, r5, r6, r7, lr}
    1a38:	4604      	mov	r4, r0
    1a3a:	460d      	mov	r5, r1
    1a3c:	6800      	ldr	r0, [r0, #0]
    1a3e:	88a1      	ldrh	r1, [r4, #4]
    1a40:	f7ff f908 	bl	c54 <validate>
    1a44:	4606      	mov	r6, r0
    1a46:	2800      	cmp	r0, #0
    1a48:	d17f      	bne.n	1b4a <f_lseek+0x114>
    1a4a:	79a2      	ldrb	r2, [r4, #6]
    1a4c:	f012 0f80 	tst.w	r2, #128	; 0x80
    1a50:	d17a      	bne.n	1b48 <f_lseek+0x112>
    1a52:	68e3      	ldr	r3, [r4, #12]
    1a54:	429d      	cmp	r5, r3
    1a56:	d904      	bls.n	1a62 <f_lseek+0x2c>
    1a58:	f002 0202 	and.w	r2, r2, #2
    1a5c:	2a00      	cmp	r2, #0
    1a5e:	bf08      	it	eq
    1a60:	461d      	moveq	r5, r3
    1a62:	2200      	movs	r2, #0
    1a64:	68a3      	ldr	r3, [r4, #8]
    1a66:	60a2      	str	r2, [r4, #8]
    1a68:	2d00      	cmp	r5, #0
    1a6a:	d05c      	beq.n	1b26 <f_lseek+0xf0>
    1a6c:	6820      	ldr	r0, [r4, #0]
    1a6e:	7887      	ldrb	r7, [r0, #2]
    1a70:	027f      	lsls	r7, r7, #9
    1a72:	b173      	cbz	r3, 1a92 <f_lseek+0x5c>
    1a74:	3b01      	subs	r3, #1
    1a76:	1e69      	subs	r1, r5, #1
    1a78:	fbb1 f1f7 	udiv	r1, r1, r7
    1a7c:	fbb3 f2f7 	udiv	r2, r3, r7
    1a80:	4291      	cmp	r1, r2
    1a82:	d306      	bcc.n	1a92 <f_lseek+0x5c>
    1a84:	427a      	negs	r2, r7
    1a86:	ea02 0303 	and.w	r3, r2, r3
    1a8a:	60a3      	str	r3, [r4, #8]
    1a8c:	1aed      	subs	r5, r5, r3
    1a8e:	6961      	ldr	r1, [r4, #20]
    1a90:	e00b      	b.n	1aaa <f_lseek+0x74>
    1a92:	6921      	ldr	r1, [r4, #16]
    1a94:	b941      	cbnz	r1, 1aa8 <f_lseek+0x72>
    1a96:	f7ff fb65 	bl	1164 <create_chain>
    1a9a:	2801      	cmp	r0, #1
    1a9c:	4601      	mov	r1, r0
    1a9e:	d037      	beq.n	1b10 <f_lseek+0xda>
    1aa0:	f1b0 3fff 	cmp.w	r0, #4294967295
    1aa4:	d015      	beq.n	1ad2 <f_lseek+0x9c>
    1aa6:	6120      	str	r0, [r4, #16]
    1aa8:	6161      	str	r1, [r4, #20]
    1aaa:	2900      	cmp	r1, #0
    1aac:	d038      	beq.n	1b20 <f_lseek+0xea>
    1aae:	e021      	b.n	1af4 <f_lseek+0xbe>
    1ab0:	79a3      	ldrb	r3, [r4, #6]
    1ab2:	f013 0f02 	tst.w	r3, #2
    1ab6:	d005      	beq.n	1ac4 <f_lseek+0x8e>
    1ab8:	6820      	ldr	r0, [r4, #0]
    1aba:	f7ff fb53 	bl	1164 <create_chain>
    1abe:	4601      	mov	r1, r0
    1ac0:	b920      	cbnz	r0, 1acc <f_lseek+0x96>
    1ac2:	e01a      	b.n	1afa <f_lseek+0xc4>
    1ac4:	6820      	ldr	r0, [r4, #0]
    1ac6:	f7ff fa59 	bl	f7c <get_fat>
    1aca:	4601      	mov	r1, r0
    1acc:	f1b1 3fff 	cmp.w	r1, #4294967295
    1ad0:	d105      	bne.n	1ade <f_lseek+0xa8>
    1ad2:	79a3      	ldrb	r3, [r4, #6]
    1ad4:	2601      	movs	r6, #1
    1ad6:	f063 037f 	orn	r3, r3, #127	; 0x7f
    1ada:	71a3      	strb	r3, [r4, #6]
    1adc:	e035      	b.n	1b4a <f_lseek+0x114>
    1ade:	2901      	cmp	r1, #1
    1ae0:	d916      	bls.n	1b10 <f_lseek+0xda>
    1ae2:	6823      	ldr	r3, [r4, #0]
    1ae4:	699b      	ldr	r3, [r3, #24]
    1ae6:	4299      	cmp	r1, r3
    1ae8:	d212      	bcs.n	1b10 <f_lseek+0xda>
    1aea:	68a3      	ldr	r3, [r4, #8]
    1aec:	6161      	str	r1, [r4, #20]
    1aee:	19db      	adds	r3, r3, r7
    1af0:	60a3      	str	r3, [r4, #8]
    1af2:	1bed      	subs	r5, r5, r7
    1af4:	42bd      	cmp	r5, r7
    1af6:	d8db      	bhi.n	1ab0 <f_lseek+0x7a>
    1af8:	e000      	b.n	1afc <f_lseek+0xc6>
    1afa:	463d      	mov	r5, r7
    1afc:	68a3      	ldr	r3, [r4, #8]
    1afe:	195b      	adds	r3, r3, r5
    1b00:	60a3      	str	r3, [r4, #8]
    1b02:	05eb      	lsls	r3, r5, #23
    1b04:	0ddb      	lsrs	r3, r3, #23
    1b06:	b16b      	cbz	r3, 1b24 <f_lseek+0xee>
    1b08:	6820      	ldr	r0, [r4, #0]
    1b0a:	f7ff fa2b 	bl	f64 <clust2sect>
    1b0e:	b920      	cbnz	r0, 1b1a <f_lseek+0xe4>
    1b10:	79a3      	ldrb	r3, [r4, #6]
    1b12:	f063 037f 	orn	r3, r3, #127	; 0x7f
    1b16:	71a3      	strb	r3, [r4, #6]
    1b18:	e016      	b.n	1b48 <f_lseek+0x112>
    1b1a:	eb00 2555 	add.w	r5, r0, r5, lsr #9
    1b1e:	e002      	b.n	1b26 <f_lseek+0xf0>
    1b20:	460d      	mov	r5, r1
    1b22:	e000      	b.n	1b26 <f_lseek+0xf0>
    1b24:	461d      	mov	r5, r3
    1b26:	68a3      	ldr	r3, [r4, #8]
    1b28:	05da      	lsls	r2, r3, #23
    1b2a:	0dd2      	lsrs	r2, r2, #23
    1b2c:	b11a      	cbz	r2, 1b36 <f_lseek+0x100>
    1b2e:	69a2      	ldr	r2, [r4, #24]
    1b30:	4295      	cmp	r5, r2
    1b32:	bf18      	it	ne
    1b34:	61a5      	strne	r5, [r4, #24]
    1b36:	68e2      	ldr	r2, [r4, #12]
    1b38:	4293      	cmp	r3, r2
    1b3a:	d906      	bls.n	1b4a <f_lseek+0x114>
    1b3c:	60e3      	str	r3, [r4, #12]
    1b3e:	79a3      	ldrb	r3, [r4, #6]
    1b40:	f043 0320 	orr.w	r3, r3, #32
    1b44:	71a3      	strb	r3, [r4, #6]
    1b46:	e000      	b.n	1b4a <f_lseek+0x114>
    1b48:	2602      	movs	r6, #2
    1b4a:	4630      	mov	r0, r6
    1b4c:	bdf8      	pop	{r3, r4, r5, r6, r7, pc}

00001b4e <f_opendir>:
    1b4e:	b510      	push	{r4, lr}
    1b50:	b086      	sub	sp, #24
    1b52:	4604      	mov	r4, r0
    1b54:	a806      	add	r0, sp, #24
    1b56:	f840 1d14 	str.w	r1, [r0, #-20]!
    1b5a:	2200      	movs	r2, #0
    1b5c:	4621      	mov	r1, r4
    1b5e:	f7ff f8f1 	bl	d44 <chk_mounted>
    1b62:	b9e0      	cbnz	r0, 1b9e <f_opendir+0x50>
    1b64:	ab03      	add	r3, sp, #12
    1b66:	61a3      	str	r3, [r4, #24]
    1b68:	4620      	mov	r0, r4
    1b6a:	9901      	ldr	r1, [sp, #4]
    1b6c:	f7ff fbce 	bl	130c <follow_path>
    1b70:	b980      	cbnz	r0, 1b94 <f_opendir+0x46>
    1b72:	6963      	ldr	r3, [r4, #20]
    1b74:	b143      	cbz	r3, 1b88 <f_opendir+0x3a>
    1b76:	7ada      	ldrb	r2, [r3, #11]
    1b78:	f012 0f10 	tst.w	r2, #16
    1b7c:	d00e      	beq.n	1b9c <f_opendir+0x4e>
    1b7e:	8a9a      	ldrh	r2, [r3, #20]
    1b80:	8b5b      	ldrh	r3, [r3, #26]
    1b82:	ea43 4302 	orr.w	r3, r3, r2, lsl #16
    1b86:	60a3      	str	r3, [r4, #8]
    1b88:	6823      	ldr	r3, [r4, #0]
    1b8a:	4620      	mov	r0, r4
    1b8c:	88db      	ldrh	r3, [r3, #6]
    1b8e:	80a3      	strh	r3, [r4, #4]
    1b90:	f7ff fa49 	bl	1026 <dir_sdi.clone.1>
    1b94:	2804      	cmp	r0, #4
    1b96:	bf08      	it	eq
    1b98:	2005      	moveq	r0, #5
    1b9a:	e000      	b.n	1b9e <f_opendir+0x50>
    1b9c:	2005      	movs	r0, #5
    1b9e:	b006      	add	sp, #24
    1ba0:	bd10      	pop	{r4, pc}

00001ba2 <f_readdir>:
    1ba2:	b5f0      	push	{r4, r5, r6, r7, lr}
    1ba4:	4604      	mov	r4, r0
    1ba6:	b085      	sub	sp, #20
    1ba8:	460d      	mov	r5, r1
    1baa:	6800      	ldr	r0, [r0, #0]
    1bac:	88a1      	ldrh	r1, [r4, #4]
    1bae:	f7ff f851 	bl	c54 <validate>
    1bb2:	4606      	mov	r6, r0
    1bb4:	2800      	cmp	r0, #0
    1bb6:	d160      	bne.n	1c7a <f_readdir+0xd8>
    1bb8:	b91d      	cbnz	r5, 1bc2 <f_readdir+0x20>
    1bba:	4620      	mov	r0, r4
    1bbc:	f7ff fa33 	bl	1026 <dir_sdi.clone.1>
    1bc0:	e05a      	b.n	1c78 <f_readdir+0xd6>
    1bc2:	ab01      	add	r3, sp, #4
    1bc4:	61a3      	str	r3, [r4, #24]
    1bc6:	2004      	movs	r0, #4
    1bc8:	e014      	b.n	1bf4 <f_readdir+0x52>
    1bca:	6820      	ldr	r0, [r4, #0]
    1bcc:	f7ff f855 	bl	c7a <move_window>
    1bd0:	b9a0      	cbnz	r0, 1bfc <f_readdir+0x5a>
    1bd2:	6962      	ldr	r2, [r4, #20]
    1bd4:	7813      	ldrb	r3, [r2, #0]
    1bd6:	2b00      	cmp	r3, #0
    1bd8:	d052      	beq.n	1c80 <f_readdir+0xde>
    1bda:	2be5      	cmp	r3, #229	; 0xe5
    1bdc:	d005      	beq.n	1bea <f_readdir+0x48>
    1bde:	2b2e      	cmp	r3, #46	; 0x2e
    1be0:	d003      	beq.n	1bea <f_readdir+0x48>
    1be2:	7ad3      	ldrb	r3, [r2, #11]
    1be4:	f013 0f08 	tst.w	r3, #8
    1be8:	d00e      	beq.n	1c08 <f_readdir+0x66>
    1bea:	4620      	mov	r0, r4
    1bec:	2100      	movs	r1, #0
    1bee:	f7ff fb08 	bl	1202 <dir_next>
    1bf2:	b918      	cbnz	r0, 1bfc <f_readdir+0x5a>
    1bf4:	6921      	ldr	r1, [r4, #16]
    1bf6:	2900      	cmp	r1, #0
    1bf8:	d1e7      	bne.n	1bca <f_readdir+0x28>
    1bfa:	b128      	cbz	r0, 1c08 <f_readdir+0x66>
    1bfc:	2300      	movs	r3, #0
    1bfe:	2804      	cmp	r0, #4
    1c00:	6123      	str	r3, [r4, #16]
    1c02:	d001      	beq.n	1c08 <f_readdir+0x66>
    1c04:	2800      	cmp	r0, #0
    1c06:	d137      	bne.n	1c78 <f_readdir+0xd6>
    1c08:	6923      	ldr	r3, [r4, #16]
    1c0a:	f105 0209 	add.w	r2, r5, #9
    1c0e:	2b00      	cmp	r3, #0
    1c10:	d028      	beq.n	1c64 <f_readdir+0xc2>
    1c12:	6963      	ldr	r3, [r4, #20]
    1c14:	4611      	mov	r1, r2
    1c16:	2700      	movs	r7, #0
    1c18:	5dd8      	ldrb	r0, [r3, r7]
    1c1a:	460a      	mov	r2, r1
    1c1c:	2820      	cmp	r0, #32
    1c1e:	d008      	beq.n	1c32 <f_readdir+0x90>
    1c20:	2805      	cmp	r0, #5
    1c22:	bf08      	it	eq
    1c24:	20e5      	moveq	r0, #229	; 0xe5
    1c26:	3701      	adds	r7, #1
    1c28:	f801 0b01 	strb.w	r0, [r1], #1
    1c2c:	2f08      	cmp	r7, #8
    1c2e:	460a      	mov	r2, r1
    1c30:	d1f2      	bne.n	1c18 <f_readdir+0x76>
    1c32:	7a18      	ldrb	r0, [r3, #8]
    1c34:	2820      	cmp	r0, #32
    1c36:	d00d      	beq.n	1c54 <f_readdir+0xb2>
    1c38:	222e      	movs	r2, #46	; 0x2e
    1c3a:	f801 2b01 	strb.w	r2, [r1], #1
    1c3e:	2008      	movs	r0, #8
    1c40:	5c1f      	ldrb	r7, [r3, r0]
    1c42:	460a      	mov	r2, r1
    1c44:	2f20      	cmp	r7, #32
    1c46:	d005      	beq.n	1c54 <f_readdir+0xb2>
    1c48:	3001      	adds	r0, #1
    1c4a:	f801 7b01 	strb.w	r7, [r1], #1
    1c4e:	280b      	cmp	r0, #11
    1c50:	460a      	mov	r2, r1
    1c52:	d1f5      	bne.n	1c40 <f_readdir+0x9e>
    1c54:	7ad9      	ldrb	r1, [r3, #11]
    1c56:	7229      	strb	r1, [r5, #8]
    1c58:	69d9      	ldr	r1, [r3, #28]
    1c5a:	6029      	str	r1, [r5, #0]
    1c5c:	8b19      	ldrh	r1, [r3, #24]
    1c5e:	80a9      	strh	r1, [r5, #4]
    1c60:	8adb      	ldrh	r3, [r3, #22]
    1c62:	80eb      	strh	r3, [r5, #6]
    1c64:	2500      	movs	r5, #0
    1c66:	7015      	strb	r5, [r2, #0]
    1c68:	4620      	mov	r0, r4
    1c6a:	4629      	mov	r1, r5
    1c6c:	f7ff fac9 	bl	1202 <dir_next>
    1c70:	2804      	cmp	r0, #4
    1c72:	d101      	bne.n	1c78 <f_readdir+0xd6>
    1c74:	6125      	str	r5, [r4, #16]
    1c76:	e000      	b.n	1c7a <f_readdir+0xd8>
    1c78:	4606      	mov	r6, r0
    1c7a:	4630      	mov	r0, r6
    1c7c:	b005      	add	sp, #20
    1c7e:	bdf0      	pop	{r4, r5, r6, r7, pc}
    1c80:	2004      	movs	r0, #4
    1c82:	e7bb      	b.n	1bfc <f_readdir+0x5a>

00001c84 <disk_initialize>:
    1c84:	f000 b83c 	b.w	1d00 <dataflash_initialize>

00001c88 <disk_status>:
    1c88:	f000 b850 	b.w	1d2c <dataflash_status>

00001c8c <disk_read>:
    1c8c:	4608      	mov	r0, r1
    1c8e:	4611      	mov	r1, r2
    1c90:	461a      	mov	r2, r3
    1c92:	f000 b8b1 	b.w	1df8 <dataflash_read>

00001c96 <disk_write>:
    1c96:	4608      	mov	r0, r1
    1c98:	4611      	mov	r1, r2
    1c9a:	461a      	mov	r2, r3
    1c9c:	f000 b96e 	b.w	1f7c <dataflash_write>

00001ca0 <disk_ioctl>:
    1ca0:	4608      	mov	r0, r1
    1ca2:	4611      	mov	r1, r2
    1ca4:	f000 b96e 	b.w	1f84 <dataflash_ioctl>

00001ca8 <dataflash_resume>:
    1ca8:	2100      	movs	r1, #0
    1caa:	460a      	mov	r2, r1
    1cac:	b510      	push	{r4, lr}
    1cae:	2002      	movs	r0, #2
    1cb0:	f003 fcaa 	bl	5608 <gpioSetValue>
    1cb4:	20ab      	movs	r0, #171	; 0xab
    1cb6:	f000 fb7b 	bl	23b0 <xmit_spi>
    1cba:	2002      	movs	r0, #2
    1cbc:	2100      	movs	r1, #0
    1cbe:	2201      	movs	r2, #1
    1cc0:	e8bd 4010 	ldmia.w	sp!, {r4, lr}
    1cc4:	f003 bca0 	b.w	5608 <gpioSetValue>

00001cc8 <wait_for_ready>:
    1cc8:	b507      	push	{r0, r1, r2, lr}
    1cca:	2100      	movs	r1, #0
    1ccc:	23ff      	movs	r3, #255	; 0xff
    1cce:	2002      	movs	r0, #2
    1cd0:	460a      	mov	r2, r1
    1cd2:	f88d 3007 	strb.w	r3, [sp, #7]
    1cd6:	f003 fc97 	bl	5608 <gpioSetValue>
    1cda:	20d7      	movs	r0, #215	; 0xd7
    1cdc:	f000 fb68 	bl	23b0 <xmit_spi>
    1ce0:	2000      	movs	r0, #0
    1ce2:	2201      	movs	r2, #1
    1ce4:	f10d 0107 	add.w	r1, sp, #7
    1ce8:	f003 ffcc 	bl	5c84 <sspReceive>
    1cec:	f99d 3007 	ldrsb.w	r3, [sp, #7]
    1cf0:	2b00      	cmp	r3, #0
    1cf2:	daf5      	bge.n	1ce0 <wait_for_ready+0x18>
    1cf4:	2002      	movs	r0, #2
    1cf6:	2100      	movs	r1, #0
    1cf8:	2201      	movs	r2, #1
    1cfa:	f003 fc85 	bl	5608 <gpioSetValue>
    1cfe:	bd0e      	pop	{r1, r2, r3, pc}

00001d00 <dataflash_initialize>:
    1d00:	2000      	movs	r0, #0
    1d02:	b508      	push	{r3, lr}
    1d04:	4601      	mov	r1, r0
    1d06:	4602      	mov	r2, r0
    1d08:	f003 ff26 	bl	5b58 <sspInit>
    1d0c:	2002      	movs	r0, #2
    1d0e:	2201      	movs	r2, #1
    1d10:	2100      	movs	r1, #0
    1d12:	f003 fc29 	bl	5568 <gpioSetDir>
    1d16:	f7ff ffc7 	bl	1ca8 <dataflash_resume>
    1d1a:	4b03      	ldr	r3, [pc, #12]	; (1d28 <dataflash_initialize+0x28>)
    1d1c:	781a      	ldrb	r2, [r3, #0]
    1d1e:	f002 02fe 	and.w	r2, r2, #254	; 0xfe
    1d22:	701a      	strb	r2, [r3, #0]
    1d24:	7818      	ldrb	r0, [r3, #0]
    1d26:	bd08      	pop	{r3, pc}
    1d28:	10000180 	.word	0x10000180

00001d2c <dataflash_status>:
    1d2c:	4b01      	ldr	r3, [pc, #4]	; (1d34 <dataflash_status+0x8>)
    1d2e:	7818      	ldrb	r0, [r3, #0]
    1d30:	4770      	bx	lr
    1d32:	bf00      	nop
    1d34:	10000180 	.word	0x10000180

00001d38 <dataflash_random_read>:
    1d38:	e92d 43f8 	stmdb	sp!, {r3, r4, r5, r6, r7, r8, r9, lr}
    1d3c:	4680      	mov	r8, r0
    1d3e:	460d      	mov	r5, r1
    1d40:	4614      	mov	r4, r2
    1d42:	2a00      	cmp	r2, #0
    1d44:	d04d      	beq.n	1de2 <dataflash_random_read+0xaa>
    1d46:	4b2b      	ldr	r3, [pc, #172]	; (1df4 <dataflash_random_read+0xbc>)
    1d48:	781b      	ldrb	r3, [r3, #0]
    1d4a:	f013 0f01 	tst.w	r3, #1
    1d4e:	d14b      	bne.n	1de8 <dataflash_random_read+0xb0>
    1d50:	1853      	adds	r3, r2, r1
    1d52:	f5b3 2f00 	cmp.w	r3, #524288	; 0x80000
    1d56:	d84a      	bhi.n	1dee <dataflash_random_read+0xb6>
    1d58:	f7ff ffb6 	bl	1cc8 <wait_for_ready>
    1d5c:	2100      	movs	r1, #0
    1d5e:	460a      	mov	r2, r1
    1d60:	f005 07ff 	and.w	r7, r5, #255	; 0xff
    1d64:	0a2e      	lsrs	r6, r5, #8
    1d66:	2002      	movs	r0, #2
    1d68:	f003 fc4e 	bl	5608 <gpioSetValue>
    1d6c:	ea47 2646 	orr.w	r6, r7, r6, lsl #9
    1d70:	20d2      	movs	r0, #210	; 0xd2
    1d72:	f000 fb1d 	bl	23b0 <xmit_spi>
    1d76:	0c30      	lsrs	r0, r6, #16
    1d78:	b2c0      	uxtb	r0, r0
    1d7a:	f000 fb19 	bl	23b0 <xmit_spi>
    1d7e:	0a30      	lsrs	r0, r6, #8
    1d80:	f000 00fe 	and.w	r0, r0, #254	; 0xfe
    1d84:	f000 fb14 	bl	23b0 <xmit_spi>
    1d88:	b2f0      	uxtb	r0, r6
    1d8a:	f000 fb11 	bl	23b0 <xmit_spi>
    1d8e:	2000      	movs	r0, #0
    1d90:	f000 fb0e 	bl	23b0 <xmit_spi>
    1d94:	2000      	movs	r0, #0
    1d96:	f000 fb0b 	bl	23b0 <xmit_spi>
    1d9a:	f5c7 7780 	rsb	r7, r7, #256	; 0x100
    1d9e:	2000      	movs	r0, #0
    1da0:	42a7      	cmp	r7, r4
    1da2:	bf28      	it	cs
    1da4:	4627      	movcs	r7, r4
    1da6:	f000 fb03 	bl	23b0 <xmit_spi>
    1daa:	2000      	movs	r0, #0
    1dac:	f000 fb00 	bl	23b0 <xmit_spi>
    1db0:	1be4      	subs	r4, r4, r7
    1db2:	19ed      	adds	r5, r5, r7
    1db4:	463e      	mov	r6, r7
    1db6:	4641      	mov	r1, r8
    1db8:	e000      	b.n	1dbc <dataflash_random_read+0x84>
    1dba:	4649      	mov	r1, r9
    1dbc:	2000      	movs	r0, #0
    1dbe:	2201      	movs	r2, #1
    1dc0:	f101 0901 	add.w	r9, r1, #1
    1dc4:	f003 ff5e 	bl	5c84 <sspReceive>
    1dc8:	3e01      	subs	r6, #1
    1dca:	d1f6      	bne.n	1dba <dataflash_random_read+0x82>
    1dcc:	2002      	movs	r0, #2
    1dce:	4631      	mov	r1, r6
    1dd0:	2201      	movs	r2, #1
    1dd2:	44b8      	add	r8, r7
    1dd4:	f003 fc18 	bl	5608 <gpioSetValue>
    1dd8:	2c00      	cmp	r4, #0
    1dda:	d1bd      	bne.n	1d58 <dataflash_random_read+0x20>
    1ddc:	4620      	mov	r0, r4
    1dde:	e8bd 83f8 	ldmia.w	sp!, {r3, r4, r5, r6, r7, r8, r9, pc}
    1de2:	2004      	movs	r0, #4
    1de4:	e8bd 83f8 	ldmia.w	sp!, {r3, r4, r5, r6, r7, r8, r9, pc}
    1de8:	2003      	movs	r0, #3
    1dea:	e8bd 83f8 	ldmia.w	sp!, {r3, r4, r5, r6, r7, r8, r9, pc}
    1dee:	2004      	movs	r0, #4
    1df0:	e8bd 83f8 	ldmia.w	sp!, {r3, r4, r5, r6, r7, r8, r9, pc}
    1df4:	10000180 	.word	0x10000180

00001df8 <dataflash_read>:
    1df8:	0249      	lsls	r1, r1, #9
    1dfa:	0252      	lsls	r2, r2, #9
    1dfc:	f7ff bf9c 	b.w	1d38 <dataflash_random_read>

00001e00 <dataflash_random_write>:
    1e00:	e92d 4ff0 	stmdb	sp!, {r4, r5, r6, r7, r8, r9, sl, fp, lr}
    1e04:	4683      	mov	fp, r0
    1e06:	b085      	sub	sp, #20
    1e08:	460e      	mov	r6, r1
    1e0a:	4615      	mov	r5, r2
    1e0c:	2a00      	cmp	r2, #0
    1e0e:	f000 80af 	beq.w	1f70 <dataflash_random_write+0x170>
    1e12:	4b59      	ldr	r3, [pc, #356]	; (1f78 <dataflash_random_write+0x178>)
    1e14:	781b      	ldrb	r3, [r3, #0]
    1e16:	f013 0f01 	tst.w	r3, #1
    1e1a:	f040 80a7 	bne.w	1f6c <dataflash_random_write+0x16c>
    1e1e:	1853      	adds	r3, r2, r1
    1e20:	f5b3 2f00 	cmp.w	r3, #524288	; 0x80000
    1e24:	f200 80a4 	bhi.w	1f70 <dataflash_random_write+0x170>
    1e28:	ea4f 2a16 	mov.w	sl, r6, lsr #8
    1e2c:	f7ff ff4c 	bl	1cc8 <wait_for_ready>
    1e30:	ea4f 2a4a 	mov.w	sl, sl, lsl #9
    1e34:	2100      	movs	r1, #0
    1e36:	460a      	mov	r2, r1
    1e38:	2002      	movs	r0, #2
    1e3a:	ea4f 491a 	mov.w	r9, sl, lsr #16
    1e3e:	f003 fbe3 	bl	5608 <gpioSetValue>
    1e42:	ea4f 281a 	mov.w	r8, sl, lsr #8
    1e46:	2053      	movs	r0, #83	; 0x53
    1e48:	fa5f f989 	uxtb.w	r9, r9
    1e4c:	f000 fab0 	bl	23b0 <xmit_spi>
    1e50:	fa5f f888 	uxtb.w	r8, r8
    1e54:	4648      	mov	r0, r9
    1e56:	f000 faab 	bl	23b0 <xmit_spi>
    1e5a:	fa5f fa8a 	uxtb.w	sl, sl
    1e5e:	4640      	mov	r0, r8
    1e60:	f000 faa6 	bl	23b0 <xmit_spi>
    1e64:	4650      	mov	r0, sl
    1e66:	f000 faa3 	bl	23b0 <xmit_spi>
    1e6a:	2002      	movs	r0, #2
    1e6c:	2100      	movs	r1, #0
    1e6e:	2201      	movs	r2, #1
    1e70:	f003 fbca 	bl	5608 <gpioSetValue>
    1e74:	f7ff ff28 	bl	1cc8 <wait_for_ready>
    1e78:	2100      	movs	r1, #0
    1e7a:	460a      	mov	r2, r1
    1e7c:	2002      	movs	r0, #2
    1e7e:	f003 fbc3 	bl	5608 <gpioSetValue>
    1e82:	2084      	movs	r0, #132	; 0x84
    1e84:	f006 04ff 	and.w	r4, r6, #255	; 0xff
    1e88:	f000 fa92 	bl	23b0 <xmit_spi>
    1e8c:	2000      	movs	r0, #0
    1e8e:	f000 fa8f 	bl	23b0 <xmit_spi>
    1e92:	f5c4 7780 	rsb	r7, r4, #256	; 0x100
    1e96:	2000      	movs	r0, #0
    1e98:	42af      	cmp	r7, r5
    1e9a:	bf28      	it	cs
    1e9c:	462f      	movcs	r7, r5
    1e9e:	f000 fa87 	bl	23b0 <xmit_spi>
    1ea2:	4620      	mov	r0, r4
    1ea4:	f000 fa84 	bl	23b0 <xmit_spi>
    1ea8:	1bed      	subs	r5, r5, r7
    1eaa:	19f6      	adds	r6, r6, r7
    1eac:	463c      	mov	r4, r7
    1eae:	465b      	mov	r3, fp
    1eb0:	f813 0b01 	ldrb.w	r0, [r3], #1
    1eb4:	9301      	str	r3, [sp, #4]
    1eb6:	f000 fa7b 	bl	23b0 <xmit_spi>
    1eba:	3c01      	subs	r4, #1
    1ebc:	9b01      	ldr	r3, [sp, #4]
    1ebe:	d1f7      	bne.n	1eb0 <dataflash_random_write+0xb0>
    1ec0:	2002      	movs	r0, #2
    1ec2:	2201      	movs	r2, #1
    1ec4:	4621      	mov	r1, r4
    1ec6:	f003 fb9f 	bl	5608 <gpioSetValue>
    1eca:	f7ff fefd 	bl	1cc8 <wait_for_ready>
    1ece:	4621      	mov	r1, r4
    1ed0:	4622      	mov	r2, r4
    1ed2:	2002      	movs	r0, #2
    1ed4:	f003 fb98 	bl	5608 <gpioSetValue>
    1ed8:	2060      	movs	r0, #96	; 0x60
    1eda:	f000 fa69 	bl	23b0 <xmit_spi>
    1ede:	4648      	mov	r0, r9
    1ee0:	f000 fa66 	bl	23b0 <xmit_spi>
    1ee4:	4640      	mov	r0, r8
    1ee6:	f000 fa63 	bl	23b0 <xmit_spi>
    1eea:	4650      	mov	r0, sl
    1eec:	f000 fa60 	bl	23b0 <xmit_spi>
    1ef0:	2002      	movs	r0, #2
    1ef2:	2201      	movs	r2, #1
    1ef4:	4621      	mov	r1, r4
    1ef6:	f003 fb87 	bl	5608 <gpioSetValue>
    1efa:	f7ff fee5 	bl	1cc8 <wait_for_ready>
    1efe:	2002      	movs	r0, #2
    1f00:	4621      	mov	r1, r4
    1f02:	4622      	mov	r2, r4
    1f04:	f003 fb80 	bl	5608 <gpioSetValue>
    1f08:	44bb      	add	fp, r7
    1f0a:	23ff      	movs	r3, #255	; 0xff
    1f0c:	af04      	add	r7, sp, #16
    1f0e:	f807 3d01 	strb.w	r3, [r7, #-1]!
    1f12:	20d7      	movs	r0, #215	; 0xd7
    1f14:	f000 fa4c 	bl	23b0 <xmit_spi>
    1f18:	2201      	movs	r2, #1
    1f1a:	4620      	mov	r0, r4
    1f1c:	4639      	mov	r1, r7
    1f1e:	f003 feb1 	bl	5c84 <sspReceive>
    1f22:	2002      	movs	r0, #2
    1f24:	2201      	movs	r2, #1
    1f26:	4621      	mov	r1, r4
    1f28:	f003 fb6e 	bl	5608 <gpioSetValue>
    1f2c:	f89d 300f 	ldrb.w	r3, [sp, #15]
    1f30:	f013 0f40 	tst.w	r3, #64	; 0x40
    1f34:	d015      	beq.n	1f62 <dataflash_random_write+0x162>
    1f36:	4621      	mov	r1, r4
    1f38:	4622      	mov	r2, r4
    1f3a:	2002      	movs	r0, #2
    1f3c:	f003 fb64 	bl	5608 <gpioSetValue>
    1f40:	2083      	movs	r0, #131	; 0x83
    1f42:	f000 fa35 	bl	23b0 <xmit_spi>
    1f46:	4648      	mov	r0, r9
    1f48:	f000 fa32 	bl	23b0 <xmit_spi>
    1f4c:	4640      	mov	r0, r8
    1f4e:	f000 fa2f 	bl	23b0 <xmit_spi>
    1f52:	4650      	mov	r0, sl
    1f54:	f000 fa2c 	bl	23b0 <xmit_spi>
    1f58:	2002      	movs	r0, #2
    1f5a:	4621      	mov	r1, r4
    1f5c:	2201      	movs	r2, #1
    1f5e:	f003 fb53 	bl	5608 <gpioSetValue>
    1f62:	2d00      	cmp	r5, #0
    1f64:	f47f af60 	bne.w	1e28 <dataflash_random_write+0x28>
    1f68:	4628      	mov	r0, r5
    1f6a:	e002      	b.n	1f72 <dataflash_random_write+0x172>
    1f6c:	2003      	movs	r0, #3
    1f6e:	e000      	b.n	1f72 <dataflash_random_write+0x172>
    1f70:	2004      	movs	r0, #4
    1f72:	b005      	add	sp, #20
    1f74:	e8bd 8ff0 	ldmia.w	sp!, {r4, r5, r6, r7, r8, r9, sl, fp, pc}
    1f78:	10000180 	.word	0x10000180

00001f7c <dataflash_write>:
    1f7c:	0249      	lsls	r1, r1, #9
    1f7e:	0252      	lsls	r2, r2, #9
    1f80:	f7ff bf3e 	b.w	1e00 <dataflash_random_write>

00001f84 <dataflash_ioctl>:
    1f84:	2805      	cmp	r0, #5
    1f86:	b508      	push	{r3, lr}
    1f88:	d11a      	bne.n	1fc0 <dataflash_ioctl+0x3c>
    1f8a:	780b      	ldrb	r3, [r1, #0]
    1f8c:	2b01      	cmp	r3, #1
    1f8e:	d011      	beq.n	1fb4 <dataflash_ioctl+0x30>
    1f90:	d302      	bcc.n	1f98 <dataflash_ioctl+0x14>
    1f92:	2b02      	cmp	r3, #2
    1f94:	d12c      	bne.n	1ff0 <dataflash_ioctl+0x6c>
    1f96:	e010      	b.n	1fba <dataflash_ioctl+0x36>
    1f98:	2100      	movs	r1, #0
    1f9a:	460a      	mov	r2, r1
    1f9c:	2002      	movs	r0, #2
    1f9e:	f003 fb33 	bl	5608 <gpioSetValue>
    1fa2:	20b9      	movs	r0, #185	; 0xb9
    1fa4:	f000 fa04 	bl	23b0 <xmit_spi>
    1fa8:	2002      	movs	r0, #2
    1faa:	2100      	movs	r1, #0
    1fac:	2201      	movs	r2, #1
    1fae:	f003 fb2b 	bl	5608 <gpioSetValue>
    1fb2:	e01b      	b.n	1fec <dataflash_ioctl+0x68>
    1fb4:	f7ff fe78 	bl	1ca8 <dataflash_resume>
    1fb8:	e018      	b.n	1fec <dataflash_ioctl+0x68>
    1fba:	2301      	movs	r3, #1
    1fbc:	704b      	strb	r3, [r1, #1]
    1fbe:	e015      	b.n	1fec <dataflash_ioctl+0x68>
    1fc0:	4b0e      	ldr	r3, [pc, #56]	; (1ffc <dataflash_ioctl+0x78>)
    1fc2:	781b      	ldrb	r3, [r3, #0]
    1fc4:	f013 0f01 	tst.w	r3, #1
    1fc8:	d114      	bne.n	1ff4 <dataflash_ioctl+0x70>
    1fca:	2803      	cmp	r0, #3
    1fcc:	d814      	bhi.n	1ff8 <dataflash_ioctl+0x74>
    1fce:	e8df f000 	tbb	[pc, r0]
    1fd2:	0502      	.short	0x0502
    1fd4:	0b08      	.short	0x0b08
    1fd6:	f7ff fe77 	bl	1cc8 <wait_for_ready>
    1fda:	e007      	b.n	1fec <dataflash_ioctl+0x68>
    1fdc:	f44f 6380 	mov.w	r3, #1024	; 0x400
    1fe0:	e003      	b.n	1fea <dataflash_ioctl+0x66>
    1fe2:	f44f 7300 	mov.w	r3, #512	; 0x200
    1fe6:	e000      	b.n	1fea <dataflash_ioctl+0x66>
    1fe8:	2301      	movs	r3, #1
    1fea:	800b      	strh	r3, [r1, #0]
    1fec:	2000      	movs	r0, #0
    1fee:	bd08      	pop	{r3, pc}
    1ff0:	2004      	movs	r0, #4
    1ff2:	bd08      	pop	{r3, pc}
    1ff4:	2003      	movs	r0, #3
    1ff6:	bd08      	pop	{r3, pc}
    1ff8:	2004      	movs	r0, #4
    1ffa:	bd08      	pop	{r3, pc}
    1ffc:	10000180 	.word	0x10000180

00002000 <get_fattime>:
    2000:	b508      	push	{r3, lr}
    2002:	f001 fe5b 	bl	3cbc <getSeconds>
    2006:	f001 fde3 	bl	3bd0 <mygmtime>
    200a:	6883      	ldr	r3, [r0, #8]
    200c:	6842      	ldr	r2, [r0, #4]
    200e:	02db      	lsls	r3, r3, #11
    2010:	ea43 1342 	orr.w	r3, r3, r2, lsl #5
    2014:	6802      	ldr	r2, [r0, #0]
    2016:	6901      	ldr	r1, [r0, #16]
    2018:	ea43 0362 	orr.w	r3, r3, r2, asr #1
    201c:	6942      	ldr	r2, [r0, #20]
    201e:	3101      	adds	r1, #1
    2020:	3a50      	subs	r2, #80	; 0x50
    2022:	0149      	lsls	r1, r1, #5
    2024:	ea41 2142 	orr.w	r1, r1, r2, lsl #9
    2028:	68c2      	ldr	r2, [r0, #12]
    202a:	ea41 0002 	orr.w	r0, r1, r2
    202e:	ea43 4000 	orr.w	r0, r3, r0, lsl #16
    2032:	bd08      	pop	{r3, pc}

00002034 <fsInit>:
    2034:	b510      	push	{r4, lr}
    2036:	2000      	movs	r0, #0
    2038:	f5ad 7d08 	sub.w	sp, sp, #544	; 0x220
    203c:	492e      	ldr	r1, [pc, #184]	; (20f8 <fsInit+0xc4>)
    203e:	f7ff fa25 	bl	148c <f_mount>
    2042:	a881      	add	r0, sp, #516	; 0x204
    2044:	492d      	ldr	r1, [pc, #180]	; (20fc <fsInit+0xc8>)
    2046:	f7ff fd82 	bl	1b4e <f_opendir>
    204a:	280d      	cmp	r0, #13
    204c:	d150      	bne.n	20f0 <fsInit+0xbc>
    204e:	482c      	ldr	r0, [pc, #176]	; (2100 <fsInit+0xcc>)
    2050:	f002 fe06 	bl	4c60 <lcdPrintln>
    2054:	482b      	ldr	r0, [pc, #172]	; (2104 <fsInit+0xd0>)
    2056:	f002 fe03 	bl	4c60 <lcdPrintln>
    205a:	f001 ffef 	bl	403c <lcdDisplay>
    205e:	a801      	add	r0, sp, #4
    2060:	2100      	movs	r1, #0
    2062:	f44f 7200 	mov.w	r2, #512	; 0x200
    2066:	f003 fcb1 	bl	59cc <memset>
    206a:	2400      	movs	r4, #0
    206c:	4621      	mov	r1, r4
    206e:	2201      	movs	r2, #1
    2070:	a801      	add	r0, sp, #4
    2072:	3401      	adds	r4, #1
    2074:	f7ff ff82 	bl	1f7c <dataflash_write>
    2078:	2c64      	cmp	r4, #100	; 0x64
    207a:	d1f7      	bne.n	206c <fsInit+0x38>
    207c:	4922      	ldr	r1, [pc, #136]	; (2108 <fsInit+0xd4>)
    207e:	221b      	movs	r2, #27
    2080:	a801      	add	r0, sp, #4
    2082:	f003 fcc4 	bl	5a0e <memmove>
    2086:	4921      	ldr	r1, [pc, #132]	; (210c <fsInit+0xd8>)
    2088:	221a      	movs	r2, #26
    208a:	a80a      	add	r0, sp, #40	; 0x28
    208c:	f003 fcbf 	bl	5a0e <memmove>
    2090:	2355      	movs	r3, #85	; 0x55
    2092:	f88d 3202 	strb.w	r3, [sp, #514]	; 0x202
    2096:	a801      	add	r0, sp, #4
    2098:	18db      	adds	r3, r3, r3
    209a:	2100      	movs	r1, #0
    209c:	2201      	movs	r2, #1
    209e:	f88d 3203 	strb.w	r3, [sp, #515]	; 0x203
    20a2:	f7ff ff6b 	bl	1f7c <dataflash_write>
    20a6:	2300      	movs	r3, #0
    20a8:	2200      	movs	r2, #0
    20aa:	a801      	add	r0, sp, #4
    20ac:	54c2      	strb	r2, [r0, r3]
    20ae:	3301      	adds	r3, #1
    20b0:	f5b3 7f00 	cmp.w	r3, #512	; 0x200
    20b4:	d1f8      	bne.n	20a8 <fsInit+0x74>
    20b6:	23f0      	movs	r3, #240	; 0xf0
    20b8:	2101      	movs	r1, #1
    20ba:	7003      	strb	r3, [r0, #0]
    20bc:	330f      	adds	r3, #15
    20be:	7043      	strb	r3, [r0, #1]
    20c0:	7083      	strb	r3, [r0, #2]
    20c2:	460a      	mov	r2, r1
    20c4:	f7ff ff5a 	bl	1f7c <dataflash_write>
    20c8:	4811      	ldr	r0, [pc, #68]	; (2110 <fsInit+0xdc>)
    20ca:	f002 fdc9 	bl	4c60 <lcdPrintln>
    20ce:	4811      	ldr	r0, [pc, #68]	; (2114 <fsInit+0xe0>)
    20d0:	f002 fdc6 	bl	4c60 <lcdPrintln>
    20d4:	4810      	ldr	r0, [pc, #64]	; (2118 <fsInit+0xe4>)
    20d6:	f002 fdc3 	bl	4c60 <lcdPrintln>
    20da:	4810      	ldr	r0, [pc, #64]	; (211c <fsInit+0xe8>)
    20dc:	f002 fdc0 	bl	4c60 <lcdPrintln>
    20e0:	480f      	ldr	r0, [pc, #60]	; (2120 <fsInit+0xec>)
    20e2:	f002 fdbd 	bl	4c60 <lcdPrintln>
    20e6:	f001 ffa9 	bl	403c <lcdDisplay>
    20ea:	f003 feab 	bl	5e44 <usbMSCInit>
    20ee:	e7fe      	b.n	20ee <fsInit+0xba>
    20f0:	f50d 7d08 	add.w	sp, sp, #544	; 0x220
    20f4:	bd10      	pop	{r4, pc}
    20f6:	bf00      	nop
    20f8:	10000508 	.word	0x10000508
    20fc:	0000611c 	.word	0x0000611c
    2100:	0000611f 	.word	0x0000611f
    2104:	0000612e 	.word	0x0000612e
    2108:	000060e7 	.word	0x000060e7
    210c:	00006102 	.word	0x00006102
    2110:	0000613b 	.word	0x0000613b
    2114:	00006141 	.word	0x00006141
    2118:	00006150 	.word	0x00006150
    211c:	000065ac 	.word	0x000065ac
    2120:	0000615e 	.word	0x0000615e

00002124 <readFile>:
    2124:	b530      	push	{r4, r5, lr}
    2126:	4603      	mov	r3, r0
    2128:	b08b      	sub	sp, #44	; 0x2c
    212a:	460d      	mov	r5, r1
    212c:	4614      	mov	r4, r2
    212e:	4668      	mov	r0, sp
    2130:	4619      	mov	r1, r3
    2132:	2201      	movs	r2, #1
    2134:	f7ff f9ba 	bl	14ac <f_open>
    2138:	b958      	cbnz	r0, 2152 <readFile+0x2e>
    213a:	4668      	mov	r0, sp
    213c:	4629      	mov	r1, r5
    213e:	4622      	mov	r2, r4
    2140:	ab09      	add	r3, sp, #36	; 0x24
    2142:	f7ff fa96 	bl	1672 <f_read>
    2146:	b920      	cbnz	r0, 2152 <readFile+0x2e>
    2148:	4668      	mov	r0, sp
    214a:	f7ff fc6d 	bl	1a28 <f_close>
    214e:	9809      	ldr	r0, [sp, #36]	; 0x24
    2150:	e001      	b.n	2156 <readFile+0x32>
    2152:	f04f 30ff 	mov.w	r0, #4294967295
    2156:	b00b      	add	sp, #44	; 0x2c
    2158:	bd30      	pop	{r4, r5, pc}

0000215a <writeFile>:
    215a:	b530      	push	{r4, r5, lr}
    215c:	4603      	mov	r3, r0
    215e:	b08b      	sub	sp, #44	; 0x2c
    2160:	460d      	mov	r5, r1
    2162:	4614      	mov	r4, r2
    2164:	4668      	mov	r0, sp
    2166:	4619      	mov	r1, r3
    2168:	220a      	movs	r2, #10
    216a:	f7ff f99f 	bl	14ac <f_open>
    216e:	b958      	cbnz	r0, 2188 <writeFile+0x2e>
    2170:	4668      	mov	r0, sp
    2172:	4629      	mov	r1, r5
    2174:	4622      	mov	r2, r4
    2176:	ab09      	add	r3, sp, #36	; 0x24
    2178:	f7ff fb27 	bl	17ca <f_write>
    217c:	b920      	cbnz	r0, 2188 <writeFile+0x2e>
    217e:	4668      	mov	r0, sp
    2180:	f7ff fc52 	bl	1a28 <f_close>
    2184:	9809      	ldr	r0, [sp, #36]	; 0x24
    2186:	e001      	b.n	218c <writeFile+0x32>
    2188:	f04f 30ff 	mov.w	r0, #4294967295
    218c:	b00b      	add	sp, #44	; 0x2c
    218e:	bd30      	pop	{r4, r5, pc}

00002190 <getFiles>:
    2190:	e92d 43f0 	stmdb	sp!, {r4, r5, r6, r7, r8, r9, lr}
    2194:	4605      	mov	r5, r0
    2196:	b08f      	sub	sp, #60	; 0x3c
    2198:	4618      	mov	r0, r3
    219a:	460c      	mov	r4, r1
    219c:	4616      	mov	r6, r2
    219e:	4699      	mov	r9, r3
    21a0:	f003 fc5d 	bl	5a5e <strlen>
    21a4:	491d      	ldr	r1, [pc, #116]	; (221c <getFiles+0x8c>)
    21a6:	4680      	mov	r8, r0
    21a8:	a801      	add	r0, sp, #4
    21aa:	f7ff fcd0 	bl	1b4e <f_opendir>
    21ae:	2800      	cmp	r0, #0
    21b0:	d12f      	bne.n	2212 <getFiles+0x82>
    21b2:	4607      	mov	r7, r0
    21b4:	e023      	b.n	21fe <getFiles+0x6e>
    21b6:	f10d 0029 	add.w	r0, sp, #41	; 0x29
    21ba:	f003 fc50 	bl	5a5e <strlen>
    21be:	4540      	cmp	r0, r8
    21c0:	db1d      	blt.n	21fe <getFiles+0x6e>
    21c2:	ebc8 0000 	rsb	r0, r8, r0
    21c6:	ab08      	add	r3, sp, #32
    21c8:	1818      	adds	r0, r3, r0
    21ca:	3009      	adds	r0, #9
    21cc:	4649      	mov	r1, r9
    21ce:	f003 fc56 	bl	5a7e <strcmp>
    21d2:	b9a0      	cbnz	r0, 21fe <getFiles+0x6e>
    21d4:	f89d 3028 	ldrb.w	r3, [sp, #40]	; 0x28
    21d8:	f013 0f10 	tst.w	r3, #16
    21dc:	d10f      	bne.n	21fe <getFiles+0x6e>
    21de:	b116      	cbz	r6, 21e6 <getFiles+0x56>
    21e0:	3e01      	subs	r6, #1
    21e2:	b2b6      	uxth	r6, r6
    21e4:	e00b      	b.n	21fe <getFiles+0x6e>
    21e6:	2cff      	cmp	r4, #255	; 0xff
    21e8:	d006      	beq.n	21f8 <getFiles+0x68>
    21ea:	200d      	movs	r0, #13
    21ec:	fb00 5007 	mla	r0, r0, r7, r5
    21f0:	f10d 0129 	add.w	r1, sp, #41	; 0x29
    21f4:	f003 fc3b 	bl	5a6e <strcpy>
    21f8:	3701      	adds	r7, #1
    21fa:	42a7      	cmp	r7, r4
    21fc:	d00a      	beq.n	2214 <getFiles+0x84>
    21fe:	a801      	add	r0, sp, #4
    2200:	a908      	add	r1, sp, #32
    2202:	f7ff fcce 	bl	1ba2 <f_readdir>
    2206:	b928      	cbnz	r0, 2214 <getFiles+0x84>
    2208:	f89d 3029 	ldrb.w	r3, [sp, #41]	; 0x29
    220c:	2b00      	cmp	r3, #0
    220e:	d1d2      	bne.n	21b6 <getFiles+0x26>
    2210:	e000      	b.n	2214 <getFiles+0x84>
    2212:	2700      	movs	r7, #0
    2214:	4638      	mov	r0, r7
    2216:	b00f      	add	sp, #60	; 0x3c
    2218:	e8bd 83f0 	ldmia.w	sp!, {r4, r5, r6, r7, r8, r9, pc}
    221c:	0000611c 	.word	0x0000611c

00002220 <selectFile>:
    2220:	e92d 4ff0 	stmdb	sp!, {r4, r5, r6, r7, r8, r9, sl, fp, lr}
    2224:	460f      	mov	r7, r1
    2226:	4680      	mov	r8, r0
    2228:	2000      	movs	r0, #0
    222a:	4602      	mov	r2, r0
    222c:	463b      	mov	r3, r7
    222e:	b09b      	sub	sp, #108	; 0x6c
    2230:	21ff      	movs	r1, #255	; 0xff
    2232:	f7ff ffad 	bl	2190 <getFiles>
    2236:	4a58      	ldr	r2, [pc, #352]	; (2398 <selectFile+0x178>)
    2238:	4b58      	ldr	r3, [pc, #352]	; (239c <selectFile+0x17c>)
    223a:	4606      	mov	r6, r0
    223c:	601a      	str	r2, [r3, #0]
    223e:	b938      	cbnz	r0, 2250 <selectFile+0x30>
    2240:	4857      	ldr	r0, [pc, #348]	; (23a0 <selectFile+0x180>)
    2242:	f002 fd0d 	bl	4c60 <lcdPrintln>
    2246:	f001 fef9 	bl	403c <lcdDisplay>
    224a:	f000 fb03 	bl	2854 <getInputWait>
    224e:	e091      	b.n	2374 <selectFile+0x154>
    2250:	2400      	movs	r4, #0
    2252:	4625      	mov	r5, r4
    2254:	2107      	movs	r1, #7
    2256:	a803      	add	r0, sp, #12
    2258:	b2aa      	uxth	r2, r5
    225a:	463b      	mov	r3, r7
    225c:	f7ff ff98 	bl	2190 <getFiles>
    2260:	2806      	cmp	r0, #6
    2262:	4683      	mov	fp, r0
    2264:	dc01      	bgt.n	226a <selectFile+0x4a>
    2266:	4284      	cmp	r4, r0
    2268:	d07c      	beq.n	2364 <selectFile+0x144>
    226a:	f002 fd01 	bl	4c70 <lcdClear>
    226e:	f04f 0a00 	mov.w	sl, #0
    2272:	484c      	ldr	r0, [pc, #304]	; (23a4 <selectFile+0x184>)
    2274:	f002 fcf4 	bl	4c60 <lcdPrintln>
    2278:	46d1      	mov	r9, sl
    227a:	e035      	b.n	22e8 <selectFile+0xc8>
    227c:	454c      	cmp	r4, r9
    227e:	bf0c      	ite	eq
    2280:	4849      	ldreq	r0, [pc, #292]	; (23a8 <selectFile+0x188>)
    2282:	484a      	ldrne	r0, [pc, #296]	; (23ac <selectFile+0x18c>)
    2284:	f002 fcae 	bl	4be4 <lcdPrint>
    2288:	200e      	movs	r0, #14
    228a:	f002 fd07 	bl	4c9c <lcdSetCrsrX>
    228e:	aa03      	add	r2, sp, #12
    2290:	2300      	movs	r3, #0
    2292:	e010      	b.n	22b6 <selectFile+0x96>
    2294:	a803      	add	r0, sp, #12
    2296:	eb0a 0100 	add.w	r1, sl, r0
    229a:	5cc9      	ldrb	r1, [r1, r3]
    229c:	320d      	adds	r2, #13
    229e:	292e      	cmp	r1, #46	; 0x2e
    22a0:	d108      	bne.n	22b4 <selectFile+0x94>
    22a2:	a91a      	add	r1, sp, #104	; 0x68
    22a4:	220d      	movs	r2, #13
    22a6:	fb02 1209 	mla	r2, r2, r9, r1
    22aa:	2100      	movs	r1, #0
    22ac:	18d2      	adds	r2, r2, r3
    22ae:	f802 1c5c 	strb.w	r1, [r2, #-92]
    22b2:	e004      	b.n	22be <selectFile+0x9e>
    22b4:	3301      	adds	r3, #1
    22b6:	2a00      	cmp	r2, #0
    22b8:	d1ec      	bne.n	2294 <selectFile+0x74>
    22ba:	f04f 33ff 	mov.w	r3, #4294967295
    22be:	aa03      	add	r2, sp, #12
    22c0:	eb02 000a 	add.w	r0, r2, sl
    22c4:	9301      	str	r3, [sp, #4]
    22c6:	f002 fccb 	bl	4c60 <lcdPrintln>
    22ca:	9b01      	ldr	r3, [sp, #4]
    22cc:	2b00      	cmp	r3, #0
    22ce:	dd07      	ble.n	22e0 <selectFile+0xc0>
    22d0:	220d      	movs	r2, #13
    22d2:	a81a      	add	r0, sp, #104	; 0x68
    22d4:	fb02 0209 	mla	r2, r2, r9, r0
    22d8:	18d3      	adds	r3, r2, r3
    22da:	222e      	movs	r2, #46	; 0x2e
    22dc:	f803 2c5c 	strb.w	r2, [r3, #-92]
    22e0:	f109 0901 	add.w	r9, r9, #1
    22e4:	f10a 0a0d 	add.w	sl, sl, #13
    22e8:	45d9      	cmp	r9, fp
    22ea:	dbc7      	blt.n	227c <selectFile+0x5c>
    22ec:	f001 fea6 	bl	403c <lcdDisplay>
    22f0:	f000 fadc 	bl	28ac <getInputWaitRepeat>
    22f4:	3801      	subs	r0, #1
    22f6:	280f      	cmp	r0, #15
    22f8:	d8ac      	bhi.n	2254 <selectFile+0x34>
    22fa:	a101      	add	r1, pc, #4	; (adr r1, 2300 <selectFile+0xe0>)
    22fc:	f851 f020 	ldr.w	pc, [r1, r0, lsl #2]
    2300:	00002359 	.word	0x00002359
    2304:	00002341 	.word	0x00002341
    2308:	00002255 	.word	0x00002255
    230c:	00002375 	.word	0x00002375
    2310:	00002255 	.word	0x00002255
    2314:	00002255 	.word	0x00002255
    2318:	00002255 	.word	0x00002255
    231c:	0000237f 	.word	0x0000237f
    2320:	00002255 	.word	0x00002255
    2324:	00002255 	.word	0x00002255
    2328:	00002255 	.word	0x00002255
    232c:	00002255 	.word	0x00002255
    2330:	00002255 	.word	0x00002255
    2334:	00002255 	.word	0x00002255
    2338:	00002255 	.word	0x00002255
    233c:	0000237f 	.word	0x0000237f
    2340:	f10b 33ff 	add.w	r3, fp, #4294967295
    2344:	429c      	cmp	r4, r3
    2346:	da01      	bge.n	234c <selectFile+0x12c>
    2348:	3401      	adds	r4, #1
    234a:	e78e      	b.n	226a <selectFile+0x4a>
    234c:	1ff3      	subs	r3, r6, #7
    234e:	429d      	cmp	r5, r3
    2350:	f43f af7e 	beq.w	2250 <selectFile+0x30>
    2354:	3501      	adds	r5, #1
    2356:	e77d      	b.n	2254 <selectFile+0x34>
    2358:	2c00      	cmp	r4, #0
    235a:	dd01      	ble.n	2360 <selectFile+0x140>
    235c:	3c01      	subs	r4, #1
    235e:	e784      	b.n	226a <selectFile+0x4a>
    2360:	2d00      	cmp	r5, #0
    2362:	dd01      	ble.n	2368 <selectFile+0x148>
    2364:	3d01      	subs	r5, #1
    2366:	e775      	b.n	2254 <selectFile+0x34>
    2368:	1ff5      	subs	r5, r6, #7
    236a:	ea25 75e5 	bic.w	r5, r5, r5, asr #31
    236e:	1e74      	subs	r4, r6, #1
    2370:	1b64      	subs	r4, r4, r5
    2372:	e76f      	b.n	2254 <selectFile+0x34>
    2374:	f000 fae8 	bl	2948 <getInputWaitRelease>
    2378:	f04f 30ff 	mov.w	r0, #4294967295
    237c:	e009      	b.n	2392 <selectFile+0x172>
    237e:	aa03      	add	r2, sp, #12
    2380:	210d      	movs	r1, #13
    2382:	fb01 2104 	mla	r1, r1, r4, r2
    2386:	4640      	mov	r0, r8
    2388:	f003 fb71 	bl	5a6e <strcpy>
    238c:	f000 fadc 	bl	2948 <getInputWaitRelease>
    2390:	2000      	movs	r0, #0
    2392:	b01b      	add	sp, #108	; 0x6c
    2394:	e8bd 8ff0 	ldmia.w	sp!, {r4, r5, r6, r7, r8, r9, sl, fp, pc}
    2398:	00006560 	.word	0x00006560
    239c:	10000354 	.word	0x10000354
    23a0:	0000616c 	.word	0x0000616c
    23a4:	00006176 	.word	0x00006176
    23a8:	00006183 	.word	0x00006183
    23ac:	000065ab 	.word	0x000065ab

000023b0 <xmit_spi>:
    23b0:	b507      	push	{r0, r1, r2, lr}
    23b2:	a902      	add	r1, sp, #8
    23b4:	f801 0d01 	strb.w	r0, [r1, #-1]!
    23b8:	2201      	movs	r2, #1
    23ba:	2000      	movs	r0, #0
    23bc:	f003 fc46 	bl	5c4c <sspSend>
    23c0:	bd0e      	pop	{r1, r2, r3, pc}
	...

000023c4 <backlightInit>:
    23c4:	4b15      	ldr	r3, [pc, #84]	; (241c <backlightInit+0x58>)
    23c6:	b510      	push	{r4, lr}
    23c8:	681a      	ldr	r2, [r3, #0]
    23ca:	4915      	ldr	r1, [pc, #84]	; (2420 <backlightInit+0x5c>)
    23cc:	f442 7280 	orr.w	r2, r2, #256	; 0x100
    23d0:	601a      	str	r2, [r3, #0]
    23d2:	4b14      	ldr	r3, [pc, #80]	; (2424 <backlightInit+0x60>)
    23d4:	2000      	movs	r0, #0
    23d6:	681a      	ldr	r2, [r3, #0]
    23d8:	f022 0207 	bic.w	r2, r2, #7
    23dc:	601a      	str	r2, [r3, #0]
    23de:	681a      	ldr	r2, [r3, #0]
    23e0:	f042 0201 	orr.w	r2, r2, #1
    23e4:	601a      	str	r2, [r3, #0]
    23e6:	4b10      	ldr	r3, [pc, #64]	; (2428 <backlightInit+0x64>)
    23e8:	681a      	ldr	r2, [r3, #0]
    23ea:	4b10      	ldr	r3, [pc, #64]	; (242c <backlightInit+0x68>)
    23ec:	fb01 3202 	mla	r2, r1, r2, r3
    23f0:	2364      	movs	r3, #100	; 0x64
    23f2:	fbb2 f2f3 	udiv	r2, r2, r3
    23f6:	4b0e      	ldr	r3, [pc, #56]	; (2430 <backlightInit+0x6c>)
    23f8:	4601      	mov	r1, r0
    23fa:	601a      	str	r2, [r3, #0]
    23fc:	2231      	movs	r2, #49	; 0x31
    23fe:	625a      	str	r2, [r3, #36]	; 0x24
    2400:	3a30      	subs	r2, #48	; 0x30
    2402:	f843 2c14 	str.w	r2, [r3, #-20]
    2406:	65da      	str	r2, [r3, #92]	; 0x5c
    2408:	f003 f8ae 	bl	5568 <gpioSetDir>
    240c:	2000      	movs	r0, #0
    240e:	4601      	mov	r1, r0
    2410:	4602      	mov	r2, r0
    2412:	e8bd 4010 	ldmia.w	sp!, {r4, lr}
    2416:	f003 b8f7 	b.w	5608 <gpioSetValue>
    241a:	bf00      	nop
    241c:	40048080 	.word	0x40048080
    2420:	ffff0001 	.word	0xffff0001
    2424:	40044038 	.word	0x40044038
    2428:	10000184 	.word	0x10000184
    242c:	0063ff9c 	.word	0x0063ff9c
    2430:	40010018 	.word	0x40010018

00002434 <backlightSetBrightness>:
    2434:	2864      	cmp	r0, #100	; 0x64
    2436:	b510      	push	{r4, lr}
    2438:	4604      	mov	r4, r0
    243a:	d81c      	bhi.n	2476 <backlightSetBrightness+0x42>
    243c:	b920      	cbnz	r0, 2448 <backlightSetBrightness+0x14>
    243e:	4601      	mov	r1, r0
    2440:	4602      	mov	r2, r0
    2442:	f003 f891 	bl	5568 <gpioSetDir>
    2446:	e009      	b.n	245c <backlightSetBrightness+0x28>
    2448:	2000      	movs	r0, #0
    244a:	4601      	mov	r1, r0
    244c:	2201      	movs	r2, #1
    244e:	f003 f88b 	bl	5568 <gpioSetDir>
    2452:	2000      	movs	r0, #0
    2454:	4601      	mov	r1, r0
    2456:	4602      	mov	r2, r0
    2458:	f003 f8d6 	bl	5608 <gpioSetValue>
    245c:	4b07      	ldr	r3, [pc, #28]	; (247c <backlightSetBrightness+0x48>)
    245e:	2264      	movs	r2, #100	; 0x64
    2460:	601c      	str	r4, [r3, #0]
    2462:	4b07      	ldr	r3, [pc, #28]	; (2480 <backlightSetBrightness+0x4c>)
    2464:	2000      	movs	r0, #0
    2466:	435c      	muls	r4, r3
    2468:	4b06      	ldr	r3, [pc, #24]	; (2484 <backlightSetBrightness+0x50>)
    246a:	18e3      	adds	r3, r4, r3
    246c:	fbb3 f3f2 	udiv	r3, r3, r2
    2470:	4a05      	ldr	r2, [pc, #20]	; (2488 <backlightSetBrightness+0x54>)
    2472:	6013      	str	r3, [r2, #0]
    2474:	bd10      	pop	{r4, pc}
    2476:	f04f 30ff 	mov.w	r0, #4294967295
    247a:	bd10      	pop	{r4, pc}
    247c:	10000184 	.word	0x10000184
    2480:	ffff0001 	.word	0xffff0001
    2484:	0063ff9c 	.word	0x0063ff9c
    2488:	40010018 	.word	0x40010018

0000248c <rbInit>:
    248c:	b5f0      	push	{r4, r5, r6, r7, lr}
    248e:	2001      	movs	r0, #1
    2490:	b087      	sub	sp, #28
    2492:	4602      	mov	r2, r0
    2494:	2108      	movs	r1, #8
    2496:	f003 f867 	bl	5568 <gpioSetDir>
    249a:	2001      	movs	r0, #1
    249c:	2108      	movs	r1, #8
    249e:	2200      	movs	r2, #0
    24a0:	f003 f8b2 	bl	5608 <gpioSetValue>
    24a4:	4d48      	ldr	r5, [pc, #288]	; (25c8 <rbInit+0x13c>)
    24a6:	2000      	movs	r0, #0
    24a8:	2106      	movs	r1, #6
    24aa:	2201      	movs	r2, #1
    24ac:	f003 f85c 	bl	5568 <gpioSetDir>
    24b0:	ac01      	add	r4, sp, #4
    24b2:	2000      	movs	r0, #0
    24b4:	2106      	movs	r1, #6
    24b6:	2201      	movs	r2, #1
    24b8:	f003 f8a6 	bl	5608 <gpioSetValue>
    24bc:	cd0f      	ldmia	r5!, {r0, r1, r2, r3}
    24be:	c40f      	stmia	r4!, {r0, r1, r2, r3}
    24c0:	682b      	ldr	r3, [r5, #0]
    24c2:	6023      	str	r3, [r4, #0]
    24c4:	2400      	movs	r4, #0
    24c6:	4d41      	ldr	r5, [pc, #260]	; (25cc <rbInit+0x140>)
    24c8:	2200      	movs	r2, #0
    24ca:	192b      	adds	r3, r5, r4
    24cc:	5d28      	ldrb	r0, [r5, r4]
    24ce:	7859      	ldrb	r1, [r3, #1]
    24d0:	f003 f84a 	bl	5568 <gpioSetDir>
    24d4:	1063      	asrs	r3, r4, #1
    24d6:	aa06      	add	r2, sp, #24
    24d8:	eb02 0383 	add.w	r3, r2, r3, lsl #2
    24dc:	2110      	movs	r1, #16
    24de:	f853 0c14 	ldr.w	r0, [r3, #-20]
    24e2:	3402      	adds	r4, #2
    24e4:	f003 f90c 	bl	5700 <gpioSetPullup>
    24e8:	2c0a      	cmp	r4, #10
    24ea:	d1ec      	bne.n	24c6 <rbInit+0x3a>
    24ec:	2200      	movs	r2, #0
    24ee:	2002      	movs	r0, #2
    24f0:	2103      	movs	r1, #3
    24f2:	f003 f839 	bl	5568 <gpioSetDir>
    24f6:	4836      	ldr	r0, [pc, #216]	; (25d0 <rbInit+0x144>)
    24f8:	2110      	movs	r1, #16
    24fa:	f003 f901 	bl	5700 <gpioSetPullup>
    24fe:	2200      	movs	r2, #0
    2500:	2001      	movs	r0, #1
    2502:	210b      	movs	r1, #11
    2504:	f003 f830 	bl	5568 <gpioSetDir>
    2508:	4b32      	ldr	r3, [pc, #200]	; (25d4 <rbInit+0x148>)
    250a:	2241      	movs	r2, #65	; 0x41
    250c:	601a      	str	r2, [r3, #0]
    250e:	f853 2c24 	ldr.w	r2, [r3, #-36]
    2512:	f105 040a 	add.w	r4, r5, #10
    2516:	f022 0207 	bic.w	r2, r2, #7
    251a:	f843 2c24 	str.w	r2, [r3, #-36]
    251e:	f853 2c24 	ldr.w	r2, [r3, #-36]
    2522:	3512      	adds	r5, #18
    2524:	f042 0201 	orr.w	r2, r2, #1
    2528:	f843 2c24 	str.w	r2, [r3, #-36]
    252c:	e00d      	b.n	254a <rbInit+0xbe>
    252e:	f814 7c02 	ldrb.w	r7, [r4, #-2]
    2532:	f814 6c01 	ldrb.w	r6, [r4, #-1]
    2536:	4638      	mov	r0, r7
    2538:	4631      	mov	r1, r6
    253a:	2201      	movs	r2, #1
    253c:	f003 f814 	bl	5568 <gpioSetDir>
    2540:	4638      	mov	r0, r7
    2542:	4631      	mov	r1, r6
    2544:	2200      	movs	r2, #0
    2546:	f003 f85f 	bl	5608 <gpioSetValue>
    254a:	3402      	adds	r4, #2
    254c:	42ac      	cmp	r4, r5
    254e:	d1ee      	bne.n	252e <rbInit+0xa2>
    2550:	4b20      	ldr	r3, [pc, #128]	; (25d4 <rbInit+0x148>)
    2552:	2001      	movs	r0, #1
    2554:	2241      	movs	r2, #65	; 0x41
    2556:	4c20      	ldr	r4, [pc, #128]	; (25d8 <rbInit+0x14c>)
    2558:	601a      	str	r2, [r3, #0]
    255a:	2109      	movs	r1, #9
    255c:	4602      	mov	r2, r0
    255e:	f003 f803 	bl	5568 <gpioSetDir>
    2562:	2001      	movs	r0, #1
    2564:	2109      	movs	r1, #9
    2566:	2200      	movs	r2, #0
    2568:	f003 f84e 	bl	5608 <gpioSetValue>
    256c:	6823      	ldr	r3, [r4, #0]
    256e:	2000      	movs	r0, #0
    2570:	f023 0307 	bic.w	r3, r3, #7
    2574:	6023      	str	r3, [r4, #0]
    2576:	6823      	ldr	r3, [r4, #0]
    2578:	4601      	mov	r1, r0
    257a:	f043 0301 	orr.w	r3, r3, #1
    257e:	6023      	str	r3, [r4, #0]
    2580:	4602      	mov	r2, r0
    2582:	f002 fff1 	bl	5568 <gpioSetDir>
    2586:	4620      	mov	r0, r4
    2588:	4c14      	ldr	r4, [pc, #80]	; (25dc <rbInit+0x150>)
    258a:	2100      	movs	r1, #0
    258c:	f003 f8b8 	bl	5700 <gpioSetPullup>
    2590:	f104 071a 	add.w	r7, r4, #26
    2594:	e00d      	b.n	25b2 <rbInit+0x126>
    2596:	f814 6c02 	ldrb.w	r6, [r4, #-2]
    259a:	f814 5c01 	ldrb.w	r5, [r4, #-1]
    259e:	4630      	mov	r0, r6
    25a0:	4629      	mov	r1, r5
    25a2:	2201      	movs	r2, #1
    25a4:	f002 ffe0 	bl	5568 <gpioSetDir>
    25a8:	4630      	mov	r0, r6
    25aa:	4629      	mov	r1, r5
    25ac:	2201      	movs	r2, #1
    25ae:	f003 f82b 	bl	5608 <gpioSetValue>
    25b2:	3402      	adds	r4, #2
    25b4:	42bc      	cmp	r4, r7
    25b6:	d1ee      	bne.n	2596 <rbInit+0x10a>
    25b8:	f7ff ff04 	bl	23c4 <backlightInit>
    25bc:	4a08      	ldr	r2, [pc, #32]	; (25e0 <rbInit+0x154>)
    25be:	4b09      	ldr	r3, [pc, #36]	; (25e4 <rbInit+0x158>)
    25c0:	601a      	str	r2, [r3, #0]
    25c2:	b007      	add	sp, #28
    25c4:	bdf0      	pop	{r4, r5, r6, r7, pc}
    25c6:	bf00      	nop
    25c8:	00006188 	.word	0x00006188
    25cc:	0000619c 	.word	0x0000619c
    25d0:	4004408c 	.word	0x4004408c
    25d4:	40044098 	.word	0x40044098
    25d8:	4004400c 	.word	0x4004400c
    25dc:	000061ac 	.word	0x000061ac
    25e0:	00006560 	.word	0x00006560
    25e4:	10000354 	.word	0x10000354

000025e8 <interrupt_undefined>:
    25e8:	4770      	bx	lr

000025ea <PIOINT3_IRQHandler>:
    25ea:	b510      	push	{r4, lr}
    25ec:	2003      	movs	r0, #3
    25ee:	2100      	movs	r1, #0
    25f0:	f003 f830 	bl	5654 <gpioIntStatus>
    25f4:	b138      	cbz	r0, 2606 <PIOINT3_IRQHandler+0x1c>
    25f6:	2003      	movs	r0, #3
    25f8:	2100      	movs	r1, #0
    25fa:	f003 f855 	bl	56a8 <gpioIntClear>
    25fe:	e8bd 4010 	ldmia.w	sp!, {r4, lr}
    2602:	f7ff bff1 	b.w	25e8 <interrupt_undefined>
    2606:	bd10      	pop	{r4, pc}

00002608 <notimplemented>:
    2608:	e7fe      	b.n	2608 <notimplemented>
	...

0000260c <ReinvokeISP>:
    260c:	b57f      	push	{r0, r1, r2, r3, r4, r5, r6, lr}
    260e:	2339      	movs	r3, #57	; 0x39
    2610:	a806      	add	r0, sp, #24
    2612:	f840 3d14 	str.w	r3, [r0, #-20]!
    2616:	4b12      	ldr	r3, [pc, #72]	; (2660 <ReinvokeISP+0x54>)
    2618:	681a      	ldr	r2, [r3, #0]
    261a:	f022 0203 	bic.w	r2, r2, #3
    261e:	601a      	str	r2, [r3, #0]
    2620:	4b10      	ldr	r3, [pc, #64]	; (2664 <ReinvokeISP+0x58>)
    2622:	681a      	ldr	r2, [r3, #0]
    2624:	f442 4280 	orr.w	r2, r2, #16384	; 0x4000
    2628:	601a      	str	r2, [r3, #0]
    262a:	681a      	ldr	r2, [r3, #0]
    262c:	f442 6280 	orr.w	r2, r2, #1024	; 0x400
    2630:	601a      	str	r2, [r3, #0]
    2632:	681a      	ldr	r2, [r3, #0]
    2634:	f042 0240 	orr.w	r2, r2, #64	; 0x40
    2638:	601a      	str	r2, [r3, #0]
    263a:	681a      	ldr	r2, [r3, #0]
    263c:	f442 3280 	orr.w	r2, r2, #65536	; 0x10000
    2640:	601a      	str	r2, [r3, #0]
    2642:	2201      	movs	r2, #1
    2644:	f843 2c08 	str.w	r2, [r3, #-8]
    2648:	4b07      	ldr	r3, [pc, #28]	; (2668 <ReinvokeISP+0x5c>)
    264a:	3a01      	subs	r2, #1
    264c:	601a      	str	r2, [r3, #0]
    264e:	4b07      	ldr	r3, [pc, #28]	; (266c <ReinvokeISP+0x60>)
    2650:	681b      	ldr	r3, [r3, #0]
    2652:	f383 8808 	msr	MSP, r3
    2656:	2100      	movs	r1, #0
    2658:	f003 f99e 	bl	5998 <iap_entry>
    265c:	b007      	add	sp, #28
    265e:	bd00      	pop	{pc}
    2660:	e000e010 	.word	0xe000e010
    2664:	40048080 	.word	0x40048080
    2668:	10000054 	.word	0x10000054
    266c:	1fff0000 	.word	0x1fff0000

00002670 <delayms>:
    2670:	f44f 537a 	mov.w	r3, #16000	; 0x3e80
    2674:	4343      	muls	r3, r0
    2676:	e001      	b.n	267c <delayms+0xc>
    2678:	bf00      	nop
    267a:	3b01      	subs	r3, #1
    267c:	2b00      	cmp	r3, #0
    267e:	d1fb      	bne.n	2678 <delayms+0x8>
    2680:	4770      	bx	lr
	...

00002684 <VoltageCheck>:
    2684:	b538      	push	{r3, r4, r5, lr}
    2686:	2103      	movs	r1, #3
    2688:	2002      	movs	r0, #2
    268a:	f002 ff93 	bl	55b4 <gpioGetValue>
    268e:	4b1e      	ldr	r3, [pc, #120]	; (2708 <VoltageCheck+0x84>)
    2690:	4d1e      	ldr	r5, [pc, #120]	; (270c <VoltageCheck+0x88>)
    2692:	7018      	strb	r0, [r3, #0]
    2694:	682b      	ldr	r3, [r5, #0]
    2696:	f44f 7234 	mov.w	r2, #720	; 0x2d0
    269a:	fbb2 f3f3 	udiv	r3, r2, r3
    269e:	3b01      	subs	r3, #1
    26a0:	4c1b      	ldr	r4, [pc, #108]	; (2710 <VoltageCheck+0x8c>)
    26a2:	021b      	lsls	r3, r3, #8
    26a4:	6023      	str	r3, [r4, #0]
    26a6:	2001      	movs	r0, #1
    26a8:	f002 fe4a 	bl	5340 <adcRead>
    26ac:	682b      	ldr	r3, [r5, #0]
    26ae:	2248      	movs	r2, #72	; 0x48
    26b0:	fbb2 f3f3 	udiv	r3, r2, r3
    26b4:	3b01      	subs	r3, #1
    26b6:	021b      	lsls	r3, r3, #8
    26b8:	4a16      	ldr	r2, [pc, #88]	; (2714 <VoltageCheck+0x90>)
    26ba:	6023      	str	r3, [r4, #0]
    26bc:	f44f 5325 	mov.w	r3, #10560	; 0x2940
    26c0:	6811      	ldr	r1, [r2, #0]
    26c2:	4343      	muls	r3, r0
    26c4:	f101 0032 	add.w	r0, r1, #50	; 0x32
    26c8:	eba0 01d1 	sub.w	r1, r0, r1, lsr #3
    26cc:	eb01 2393 	add.w	r3, r1, r3, lsr #10
    26d0:	6013      	str	r3, [r2, #0]
    26d2:	f646 525f 	movw	r2, #27999	; 0x6d5f
    26d6:	4293      	cmp	r3, r2
    26d8:	d814      	bhi.n	2704 <VoltageCheck+0x80>
    26da:	f7fe fa3d 	bl	b58 <nrf_off>
    26de:	2001      	movs	r0, #1
    26e0:	2108      	movs	r1, #8
    26e2:	2200      	movs	r2, #0
    26e4:	f002 ff90 	bl	5608 <gpioSetValue>
    26e8:	2200      	movs	r2, #0
    26ea:	2001      	movs	r0, #1
    26ec:	2109      	movs	r1, #9
    26ee:	f002 ff8b 	bl	5608 <gpioSetValue>
    26f2:	4b09      	ldr	r3, [pc, #36]	; (2718 <VoltageCheck+0x94>)
    26f4:	681a      	ldr	r2, [r3, #0]
    26f6:	f042 0204 	orr.w	r2, r2, #4
    26fa:	601a      	str	r2, [r3, #0]
    26fc:	4b07      	ldr	r3, [pc, #28]	; (271c <VoltageCheck+0x98>)
    26fe:	2202      	movs	r2, #2
    2700:	601a      	str	r2, [r3, #0]
    2702:	bf30      	wfi
    2704:	bd38      	pop	{r3, r4, r5, pc}
    2706:	bf00      	nop
    2708:	1000018c 	.word	0x1000018c
    270c:	40048078 	.word	0x40048078
    2710:	4001c000 	.word	0x4001c000
    2714:	10000188 	.word	0x10000188
    2718:	e000ed10 	.word	0xe000ed10
    271c:	40038000 	.word	0x40038000

00002720 <GetVoltage>:
    2720:	4b01      	ldr	r3, [pc, #4]	; (2728 <GetVoltage+0x8>)
    2722:	6818      	ldr	r0, [r3, #0]
    2724:	08c0      	lsrs	r0, r0, #3
    2726:	4770      	bx	lr
    2728:	10000188 	.word	0x10000188

0000272c <GetChrgStat>:
    272c:	4b03      	ldr	r3, [pc, #12]	; (273c <GetChrgStat+0x10>)
    272e:	7818      	ldrb	r0, [r3, #0]
    2730:	f1d0 0001 	rsbs	r0, r0, #1
    2734:	bf38      	it	cc
    2736:	2000      	movcc	r0, #0
    2738:	4770      	bx	lr
    273a:	bf00      	nop
    273c:	1000018c 	.word	0x1000018c

00002740 <LightCheck>:
    2740:	e92d 47f0 	stmdb	sp!, {r4, r5, r6, r7, r8, r9, sl, lr}
    2744:	4b1d      	ldr	r3, [pc, #116]	; (27bc <LightCheck+0x7c>)
    2746:	4e1e      	ldr	r6, [pc, #120]	; (27c0 <LightCheck+0x80>)
    2748:	f04f 0901 	mov.w	r9, #1
    274c:	f8d6 8000 	ldr.w	r8, [r6]
    2750:	681f      	ldr	r7, [r3, #0]
    2752:	4c1c      	ldr	r4, [pc, #112]	; (27c4 <LightCheck+0x84>)
    2754:	f417 6700 	ands.w	r7, r7, #2048	; 0x800
    2758:	d12c      	bne.n	27b4 <LightCheck+0x74>
    275a:	4d1b      	ldr	r5, [pc, #108]	; (27c8 <LightCheck+0x88>)
    275c:	f8c6 9000 	str.w	r9, [r6]
    2760:	682b      	ldr	r3, [r5, #0]
    2762:	2007      	movs	r0, #7
    2764:	eba3 0a93 	sub.w	sl, r3, r3, lsr #2
    2768:	f8c5 a000 	str.w	sl, [r5]
    276c:	f002 fde8 	bl	5340 <adcRead>
    2770:	eb0a 0050 	add.w	r0, sl, r0, lsr #1
    2774:	6028      	str	r0, [r5, #0]
    2776:	210b      	movs	r1, #11
    2778:	4648      	mov	r0, r9
    277a:	463a      	mov	r2, r7
    277c:	f002 fef4 	bl	5568 <gpioSetDir>
    2780:	f8c6 8000 	str.w	r8, [r6]
    2784:	7823      	ldrb	r3, [r4, #0]
    2786:	b143      	cbz	r3, 279a <LightCheck+0x5a>
    2788:	4b10      	ldr	r3, [pc, #64]	; (27cc <LightCheck+0x8c>)
    278a:	682a      	ldr	r2, [r5, #0]
    278c:	7f19      	ldrb	r1, [r3, #28]
    278e:	7d1b      	ldrb	r3, [r3, #20]
    2790:	18cb      	adds	r3, r1, r3
    2792:	ebb3 0f92 	cmp.w	r3, r2, lsr #2
    2796:	bf38      	it	cc
    2798:	7027      	strbcc	r7, [r4, #0]
    279a:	7823      	ldrb	r3, [r4, #0]
    279c:	b963      	cbnz	r3, 27b8 <LightCheck+0x78>
    279e:	4b0b      	ldr	r3, [pc, #44]	; (27cc <LightCheck+0x8c>)
    27a0:	682a      	ldr	r2, [r5, #0]
    27a2:	7d1b      	ldrb	r3, [r3, #20]
    27a4:	ebb3 0f92 	cmp.w	r3, r2, lsr #2
    27a8:	d906      	bls.n	27b8 <LightCheck+0x78>
    27aa:	4b06      	ldr	r3, [pc, #24]	; (27c4 <LightCheck+0x84>)
    27ac:	2201      	movs	r2, #1
    27ae:	701a      	strb	r2, [r3, #0]
    27b0:	e8bd 87f0 	ldmia.w	sp!, {r4, r5, r6, r7, r8, r9, sl, pc}
    27b4:	f884 9000 	strb.w	r9, [r4]
    27b8:	e8bd 87f0 	ldmia.w	sp!, {r4, r5, r6, r7, r8, r9, sl, pc}
    27bc:	50018000 	.word	0x50018000
    27c0:	40044098 	.word	0x40044098
    27c4:	10000194 	.word	0x10000194
    27c8:	10000190 	.word	0x10000190
    27cc:	10000210 	.word	0x10000210

000027d0 <GetLight>:
    27d0:	4b01      	ldr	r3, [pc, #4]	; (27d8 <GetLight+0x8>)
    27d2:	6818      	ldr	r0, [r3, #0]
    27d4:	0880      	lsrs	r0, r0, #2
    27d6:	4770      	bx	lr
    27d8:	10000190 	.word	0x10000190

000027dc <isNight>:
    27dc:	4b01      	ldr	r3, [pc, #4]	; (27e4 <isNight+0x8>)
    27de:	7818      	ldrb	r0, [r3, #0]
    27e0:	4770      	bx	lr
    27e2:	bf00      	nop
    27e4:	10000194 	.word	0x10000194

000027e8 <getInputRaw>:
    27e8:	2003      	movs	r0, #3
    27ea:	b510      	push	{r4, lr}
    27ec:	4601      	mov	r1, r0
    27ee:	f002 fee1 	bl	55b4 <gpioGetValue>
    27f2:	f1d0 0401 	rsbs	r4, r0, #1
    27f6:	bf38      	it	cc
    27f8:	2400      	movcc	r4, #0
    27fa:	2002      	movs	r0, #2
    27fc:	2106      	movs	r1, #6
    27fe:	f002 fed9 	bl	55b4 <gpioGetValue>
    2802:	b910      	cbnz	r0, 280a <getInputRaw+0x22>
    2804:	f044 0402 	orr.w	r4, r4, #2
    2808:	b2e4      	uxtb	r4, r4
    280a:	2002      	movs	r0, #2
    280c:	2107      	movs	r1, #7
    280e:	f002 fed1 	bl	55b4 <gpioGetValue>
    2812:	b908      	cbnz	r0, 2818 <getInputRaw+0x30>
    2814:	f044 0410 	orr.w	r4, r4, #16
    2818:	2000      	movs	r0, #0
    281a:	2101      	movs	r1, #1
    281c:	f002 feca 	bl	55b4 <gpioGetValue>
    2820:	b908      	cbnz	r0, 2826 <getInputRaw+0x3e>
    2822:	f044 0404 	orr.w	r4, r4, #4
    2826:	2002      	movs	r0, #2
    2828:	2109      	movs	r1, #9
    282a:	f002 fec3 	bl	55b4 <gpioGetValue>
    282e:	b908      	cbnz	r0, 2834 <getInputRaw+0x4c>
    2830:	f044 0408 	orr.w	r4, r4, #8
    2834:	4620      	mov	r0, r4
    2836:	bd10      	pop	{r4, pc}

00002838 <getInput>:
    2838:	b510      	push	{r4, lr}
    283a:	f7ff ffd5 	bl	27e8 <getInputRaw>
    283e:	4604      	mov	r4, r0
    2840:	b910      	cbnz	r0, 2848 <getInput+0x10>
    2842:	e005      	b.n	2850 <getInput+0x18>
    2844:	f000 ff62 	bl	370c <work_queue>
    2848:	f7ff ffce 	bl	27e8 <getInputRaw>
    284c:	4284      	cmp	r4, r0
    284e:	d0f9      	beq.n	2844 <getInput+0xc>
    2850:	4620      	mov	r0, r4
    2852:	bd10      	pop	{r4, pc}

00002854 <getInputWait>:
    2854:	b510      	push	{r4, lr}
    2856:	e001      	b.n	285c <getInputWait+0x8>
    2858:	f000 ff58 	bl	370c <work_queue>
    285c:	f7ff ffc4 	bl	27e8 <getInputRaw>
    2860:	4604      	mov	r4, r0
    2862:	2800      	cmp	r0, #0
    2864:	d0f8      	beq.n	2858 <getInputWait+0x4>
    2866:	200a      	movs	r0, #10
    2868:	f000 ff84 	bl	3774 <delayms_queue>
    286c:	4620      	mov	r0, r4
    286e:	bd10      	pop	{r4, pc}

00002870 <getInputWaitTimeout>:
    2870:	b570      	push	{r4, r5, r6, lr}
    2872:	b918      	cbnz	r0, 287c <getInputWaitTimeout+0xc>
    2874:	e8bd 4070 	ldmia.w	sp!, {r4, r5, r6, lr}
    2878:	f7ff bfec 	b.w	2854 <getInputWait>
    287c:	4d0a      	ldr	r5, [pc, #40]	; (28a8 <getInputWaitTimeout+0x38>)
    287e:	260a      	movs	r6, #10
    2880:	682b      	ldr	r3, [r5, #0]
    2882:	fb90 f6f6 	sdiv	r6, r0, r6
    2886:	18f6      	adds	r6, r6, r3
    2888:	e004      	b.n	2894 <getInputWaitTimeout+0x24>
    288a:	682b      	ldr	r3, [r5, #0]
    288c:	42b3      	cmp	r3, r6
    288e:	d806      	bhi.n	289e <getInputWaitTimeout+0x2e>
    2890:	f000 ff3c 	bl	370c <work_queue>
    2894:	f7ff ffa8 	bl	27e8 <getInputRaw>
    2898:	4604      	mov	r4, r0
    289a:	2800      	cmp	r0, #0
    289c:	d0f5      	beq.n	288a <getInputWaitTimeout+0x1a>
    289e:	200a      	movs	r0, #10
    28a0:	f000 ff68 	bl	3774 <delayms_queue>
    28a4:	4620      	mov	r0, r4
    28a6:	bd70      	pop	{r4, r5, r6, pc}
    28a8:	100002ec 	.word	0x100002ec

000028ac <getInputWaitRepeat>:
    28ac:	e92d 41f0 	stmdb	sp!, {r4, r5, r6, r7, r8, lr}
    28b0:	f7ff ff9a 	bl	27e8 <getInputRaw>
    28b4:	4d21      	ldr	r5, [pc, #132]	; (293c <getInputWaitRepeat+0x90>)
    28b6:	4604      	mov	r4, r0
    28b8:	2800      	cmp	r0, #0
    28ba:	d02d      	beq.n	2918 <getInputWaitRepeat+0x6c>
    28bc:	4e20      	ldr	r6, [pc, #128]	; (2940 <getInputWaitRepeat+0x94>)
    28be:	7833      	ldrb	r3, [r6, #0]
    28c0:	4283      	cmp	r3, r0
    28c2:	d129      	bne.n	2918 <getInputWaitRepeat+0x6c>
    28c4:	682b      	ldr	r3, [r5, #0]
    28c6:	b143      	cbz	r3, 28da <getInputWaitRepeat+0x2e>
    28c8:	2b04      	cmp	r3, #4
    28ca:	dd09      	ble.n	28e0 <getInputWaitRepeat+0x34>
    28cc:	2b18      	cmp	r3, #24
    28ce:	dd09      	ble.n	28e4 <getInputWaitRepeat+0x38>
    28d0:	2b31      	cmp	r3, #49	; 0x31
    28d2:	bfcc      	ite	gt
    28d4:	2214      	movgt	r2, #20
    28d6:	2250      	movle	r2, #80	; 0x50
    28d8:	e005      	b.n	28e6 <getInputWaitRepeat+0x3a>
    28da:	f44f 7216 	mov.w	r2, #600	; 0x258
    28de:	e002      	b.n	28e6 <getInputWaitRepeat+0x3a>
    28e0:	22fa      	movs	r2, #250	; 0xfa
    28e2:	e000      	b.n	28e6 <getInputWaitRepeat+0x3a>
    28e4:	2296      	movs	r2, #150	; 0x96
    28e6:	4f17      	ldr	r7, [pc, #92]	; (2944 <getInputWaitRepeat+0x98>)
    28e8:	3301      	adds	r3, #1
    28ea:	602b      	str	r3, [r5, #0]
    28ec:	f04f 080a 	mov.w	r8, #10
    28f0:	683b      	ldr	r3, [r7, #0]
    28f2:	fb92 f8f8 	sdiv	r8, r2, r8
    28f6:	4498      	add	r8, r3
    28f8:	e001      	b.n	28fe <getInputWaitRepeat+0x52>
    28fa:	f000 ff07 	bl	370c <work_queue>
    28fe:	683b      	ldr	r3, [r7, #0]
    2900:	4543      	cmp	r3, r8
    2902:	d203      	bcs.n	290c <getInputWaitRepeat+0x60>
    2904:	f7ff ff70 	bl	27e8 <getInputRaw>
    2908:	4284      	cmp	r4, r0
    290a:	d0f6      	beq.n	28fa <getInputWaitRepeat+0x4e>
    290c:	f7ff ff6c 	bl	27e8 <getInputRaw>
    2910:	7833      	ldrb	r3, [r6, #0]
    2912:	4604      	mov	r4, r0
    2914:	4283      	cmp	r3, r0
    2916:	d00e      	beq.n	2936 <getInputWaitRepeat+0x8a>
    2918:	2300      	movs	r3, #0
    291a:	602b      	str	r3, [r5, #0]
    291c:	e001      	b.n	2922 <getInputWaitRepeat+0x76>
    291e:	f000 fef5 	bl	370c <work_queue>
    2922:	f7ff ff61 	bl	27e8 <getInputRaw>
    2926:	4604      	mov	r4, r0
    2928:	2800      	cmp	r0, #0
    292a:	d0f8      	beq.n	291e <getInputWaitRepeat+0x72>
    292c:	200a      	movs	r0, #10
    292e:	f000 ff21 	bl	3774 <delayms_queue>
    2932:	4b03      	ldr	r3, [pc, #12]	; (2940 <getInputWaitRepeat+0x94>)
    2934:	701c      	strb	r4, [r3, #0]
    2936:	4620      	mov	r0, r4
    2938:	e8bd 81f0 	ldmia.w	sp!, {r4, r5, r6, r7, r8, pc}
    293c:	100002dc 	.word	0x100002dc
    2940:	100002d8 	.word	0x100002d8
    2944:	100002ec 	.word	0x100002ec

00002948 <getInputWaitRelease>:
    2948:	b510      	push	{r4, lr}
    294a:	e001      	b.n	2950 <getInputWaitRelease+0x8>
    294c:	f000 fede 	bl	370c <work_queue>
    2950:	f7ff ff4a 	bl	27e8 <getInputRaw>
    2954:	2800      	cmp	r0, #0
    2956:	d1f9      	bne.n	294c <getInputWaitRelease+0x4>
    2958:	300a      	adds	r0, #10
    295a:	e8bd 4010 	ldmia.w	sp!, {r4, lr}
    295e:	f000 bf09 	b.w	3774 <delayms_queue>
	...

00002964 <initUUID>:
    2964:	b5f0      	push	{r4, r5, r6, r7, lr}
    2966:	b095      	sub	sp, #84	; 0x54
    2968:	a807      	add	r0, sp, #28
    296a:	f003 f81b 	bl	59a4 <iapReadSerialNumber>
    296e:	9907      	ldr	r1, [sp, #28]
    2970:	9f08      	ldr	r7, [sp, #32]
    2972:	9e09      	ldr	r6, [sp, #36]	; 0x24
    2974:	9d0a      	ldr	r5, [sp, #40]	; 0x28
    2976:	9c0b      	ldr	r4, [sp, #44]	; 0x2c
    2978:	b971      	cbnz	r1, 2998 <initUUID+0x34>
    297a:	2210      	movs	r2, #16
    297c:	a80c      	add	r0, sp, #48	; 0x30
    297e:	f003 f825 	bl	59cc <memset>
    2982:	a810      	add	r0, sp, #64	; 0x40
    2984:	2104      	movs	r1, #4
    2986:	aa0c      	add	r2, sp, #48	; 0x30
    2988:	9710      	str	r7, [sp, #64]	; 0x40
    298a:	9611      	str	r6, [sp, #68]	; 0x44
    298c:	9512      	str	r5, [sp, #72]	; 0x48
    298e:	9413      	str	r4, [sp, #76]	; 0x4c
    2990:	f000 f903 	bl	2b9a <xxtea_encode_words>
    2994:	9b10      	ldr	r3, [sp, #64]	; 0x40
    2996:	e000      	b.n	299a <initUUID+0x36>
    2998:	2300      	movs	r3, #0
    299a:	4a09      	ldr	r2, [pc, #36]	; (29c0 <initUUID+0x5c>)
    299c:	4668      	mov	r0, sp
    299e:	6013      	str	r3, [r2, #0]
    29a0:	466d      	mov	r5, sp
    29a2:	ac07      	add	r4, sp, #28
    29a4:	f002 fffe 	bl	59a4 <iapReadSerialNumber>
    29a8:	cd0f      	ldmia	r5!, {r0, r1, r2, r3}
    29aa:	c40f      	stmia	r4!, {r0, r1, r2, r3}
    29ac:	682b      	ldr	r3, [r5, #0]
    29ae:	a808      	add	r0, sp, #32
    29b0:	6023      	str	r3, [r4, #0]
    29b2:	2110      	movs	r1, #16
    29b4:	f000 f80e 	bl	29d4 <crc16>
    29b8:	4b02      	ldr	r3, [pc, #8]	; (29c4 <initUUID+0x60>)
    29ba:	8018      	strh	r0, [r3, #0]
    29bc:	b015      	add	sp, #84	; 0x54
    29be:	bdf0      	pop	{r4, r5, r6, r7, pc}
    29c0:	100002e4 	.word	0x100002e4
    29c4:	100002e0 	.word	0x100002e0

000029c8 <GetUUID32>:
    29c8:	4b01      	ldr	r3, [pc, #4]	; (29d0 <GetUUID32+0x8>)
    29ca:	6818      	ldr	r0, [r3, #0]
    29cc:	4770      	bx	lr
    29ce:	bf00      	nop
    29d0:	100002e4 	.word	0x100002e4

000029d4 <crc16>:
    29d4:	b510      	push	{r4, lr}
    29d6:	2200      	movs	r2, #0
    29d8:	f64f 73ff 	movw	r3, #65535	; 0xffff
    29dc:	e00f      	b.n	29fe <crc16+0x2a>
    29de:	0a1c      	lsrs	r4, r3, #8
    29e0:	b2e4      	uxtb	r4, r4
    29e2:	ea44 2303 	orr.w	r3, r4, r3, lsl #8
    29e6:	5c84      	ldrb	r4, [r0, r2]
    29e8:	3201      	adds	r2, #1
    29ea:	4063      	eors	r3, r4
    29ec:	b2dc      	uxtb	r4, r3
    29ee:	ea83 1314 	eor.w	r3, r3, r4, lsr #4
    29f2:	ea83 3303 	eor.w	r3, r3, r3, lsl #12
    29f6:	f003 04ff 	and.w	r4, r3, #255	; 0xff
    29fa:	ea83 1344 	eor.w	r3, r3, r4, lsl #5
    29fe:	428a      	cmp	r2, r1
    2a00:	dbed      	blt.n	29de <crc16+0xa>
    2a02:	b298      	uxth	r0, r3
    2a04:	bd10      	pop	{r4, pc}
	...

00002a08 <handleMenu>:
    2a08:	e92d 47f0 	stmdb	sp!, {r4, r5, r6, r7, r8, r9, sl, lr}
    2a0c:	4680      	mov	r8, r0
    2a0e:	2800      	cmp	r0, #0
    2a10:	f000 80a9 	beq.w	2b66 <handleMenu+0x15e>
    2a14:	f002 f948 	bl	4ca8 <setSystemFont>
    2a18:	2600      	movs	r6, #0
    2a1a:	e001      	b.n	2a20 <handleMenu+0x18>
    2a1c:	3601      	adds	r6, #1
    2a1e:	b2f6      	uxtb	r6, r6
    2a20:	eb08 03c6 	add.w	r3, r8, r6, lsl #3
    2a24:	685b      	ldr	r3, [r3, #4]
    2a26:	2b00      	cmp	r3, #0
    2a28:	d1f8      	bne.n	2a1c <handleMenu+0x14>
    2a2a:	1e73      	subs	r3, r6, #1
    2a2c:	eb08 02c3 	add.w	r2, r8, r3, lsl #3
    2a30:	6852      	ldr	r2, [r2, #4]
    2a32:	7812      	ldrb	r2, [r2, #0]
    2a34:	2a7c      	cmp	r2, #124	; 0x7c
    2a36:	d104      	bne.n	2a42 <handleMenu+0x3a>
    2a38:	4a4c      	ldr	r2, [pc, #304]	; (2b6c <handleMenu+0x164>)
    2a3a:	f892 2054 	ldrb.w	r2, [r2, #84]	; 0x54
    2a3e:	b902      	cbnz	r2, 2a42 <handleMenu+0x3a>
    2a40:	b2de      	uxtb	r6, r3
    2a42:	f002 f937 	bl	4cb4 <lcdGetVisibleLines>
    2a46:	4b4a      	ldr	r3, [pc, #296]	; (2b70 <handleMenu+0x168>)
    2a48:	3801      	subs	r0, #1
    2a4a:	781a      	ldrb	r2, [r3, #0]
    2a4c:	b2c7      	uxtb	r7, r0
    2a4e:	f012 0f04 	tst.w	r2, #4
    2a52:	bf18      	it	ne
    2a54:	087f      	lsrne	r7, r7, #1
    2a56:	2500      	movs	r5, #0
    2a58:	469a      	mov	sl, r3
    2a5a:	462c      	mov	r4, r5
    2a5c:	e07b      	b.n	2b56 <handleMenu+0x14e>
    2a5e:	f89a 3000 	ldrb.w	r3, [sl]
    2a62:	f013 0f04 	tst.w	r3, #4
    2a66:	d001      	beq.n	2a6c <handleMenu+0x64>
    2a68:	f002 f8de 	bl	4c28 <lcdNl>
    2a6c:	b263      	sxtb	r3, r4
    2a6e:	4599      	cmp	r9, r3
    2a70:	d102      	bne.n	2a78 <handleMenu+0x70>
    2a72:	4840      	ldr	r0, [pc, #256]	; (2b74 <handleMenu+0x16c>)
    2a74:	f002 f8b6 	bl	4be4 <lcdPrint>
    2a78:	200e      	movs	r0, #14
    2a7a:	f002 f90f 	bl	4c9c <lcdSetCrsrX>
    2a7e:	eb08 03c9 	add.w	r3, r8, r9, lsl #3
    2a82:	6858      	ldr	r0, [r3, #4]
    2a84:	f002 f8ec 	bl	4c60 <lcdPrintln>
    2a88:	f109 0901 	add.w	r9, r9, #1
    2a8c:	fa5f f989 	uxtb.w	r9, r9
    2a90:	19eb      	adds	r3, r5, r7
    2a92:	4599      	cmp	r9, r3
    2a94:	da01      	bge.n	2a9a <handleMenu+0x92>
    2a96:	45b1      	cmp	r9, r6
    2a98:	d3e1      	bcc.n	2a5e <handleMenu+0x56>
    2a9a:	f001 facf 	bl	403c <lcdDisplay>
    2a9e:	f89a 0000 	ldrb.w	r0, [sl]
    2aa2:	f643 2398 	movw	r3, #15000	; 0x3a98
    2aa6:	f010 0001 	ands.w	r0, r0, #1
    2aaa:	bf18      	it	ne
    2aac:	4618      	movne	r0, r3
    2aae:	f7ff fedf 	bl	2870 <getInputWaitTimeout>
    2ab2:	2810      	cmp	r0, #16
    2ab4:	d84d      	bhi.n	2b52 <handleMenu+0x14a>
    2ab6:	e8df f000 	tbb	[pc, r0]
    2aba:	0956      	.short	0x0956
    2abc:	4c564c19 	.word	0x4c564c19
    2ac0:	4c264c4c 	.word	0x4c264c4c
    2ac4:	4c4c4c4c 	.word	0x4c4c4c4c
    2ac8:	4c4c      	.short	0x4c4c
    2aca:	35          	.byte	0x35
    2acb:	00          	.byte	0x00
    2acc:	3c01      	subs	r4, #1
    2ace:	b2e4      	uxtb	r4, r4
    2ad0:	b263      	sxtb	r3, r4
    2ad2:	42ab      	cmp	r3, r5
    2ad4:	da3d      	bge.n	2b52 <handleMenu+0x14a>
    2ad6:	2b00      	cmp	r3, #0
    2ad8:	da05      	bge.n	2ae6 <handleMenu+0xde>
    2ada:	1e75      	subs	r5, r6, #1
    2adc:	b2ec      	uxtb	r4, r5
    2ade:	fb95 f5f7 	sdiv	r5, r5, r7
    2ae2:	437d      	muls	r5, r7
    2ae4:	e000      	b.n	2ae8 <handleMenu+0xe0>
    2ae6:	1bed      	subs	r5, r5, r7
    2ae8:	b2ed      	uxtb	r5, r5
    2aea:	e032      	b.n	2b52 <handleMenu+0x14a>
    2aec:	3401      	adds	r4, #1
    2aee:	b2e4      	uxtb	r4, r4
    2af0:	b263      	sxtb	r3, r4
    2af2:	19ea      	adds	r2, r5, r7
    2af4:	429a      	cmp	r2, r3
    2af6:	dd02      	ble.n	2afe <handleMenu+0xf6>
    2af8:	42b3      	cmp	r3, r6
    2afa:	db2a      	blt.n	2b52 <handleMenu+0x14a>
    2afc:	e027      	b.n	2b4e <handleMenu+0x146>
    2afe:	42b3      	cmp	r3, r6
    2b00:	da25      	bge.n	2b4e <handleMenu+0x146>
    2b02:	b2d5      	uxtb	r5, r2
    2b04:	e025      	b.n	2b52 <handleMenu+0x14a>
    2b06:	b263      	sxtb	r3, r4
    2b08:	eb08 03c3 	add.w	r3, r8, r3, lsl #3
    2b0c:	689b      	ldr	r3, [r3, #8]
    2b0e:	b103      	cbz	r3, 2b12 <handleMenu+0x10a>
    2b10:	4798      	blx	r3
    2b12:	f002 f8c9 	bl	4ca8 <setSystemFont>
    2b16:	f89a 3000 	ldrb.w	r3, [sl]
    2b1a:	f013 0f02 	tst.w	r3, #2
    2b1e:	d018      	beq.n	2b52 <handleMenu+0x14a>
    2b20:	e8bd 87f0 	ldmia.w	sp!, {r4, r5, r6, r7, r8, r9, sl, pc}
    2b24:	f002 f8a4 	bl	4c70 <lcdClear>
    2b28:	f7ff ff0e 	bl	2948 <getInputWaitRelease>
    2b2c:	b263      	sxtb	r3, r4
    2b2e:	eb08 03c3 	add.w	r3, r8, r3, lsl #3
    2b32:	689b      	ldr	r3, [r3, #8]
    2b34:	b103      	cbz	r3, 2b38 <handleMenu+0x130>
    2b36:	4798      	blx	r3
    2b38:	f001 fa80 	bl	403c <lcdDisplay>
    2b3c:	f002 f8b4 	bl	4ca8 <setSystemFont>
    2b40:	f89a 3000 	ldrb.w	r3, [sl]
    2b44:	f013 0f02 	tst.w	r3, #2
    2b48:	d003      	beq.n	2b52 <handleMenu+0x14a>
    2b4a:	e8bd 87f0 	ldmia.w	sp!, {r4, r5, r6, r7, r8, r9, sl, pc}
    2b4e:	2500      	movs	r5, #0
    2b50:	462c      	mov	r4, r5
    2b52:	f7ff fef9 	bl	2948 <getInputWaitRelease>
    2b56:	f002 f88b 	bl	4c70 <lcdClear>
    2b5a:	f8d8 0000 	ldr.w	r0, [r8]
    2b5e:	f002 f87f 	bl	4c60 <lcdPrintln>
    2b62:	46a9      	mov	r9, r5
    2b64:	e794      	b.n	2a90 <handleMenu+0x88>
    2b66:	e8bd 87f0 	ldmia.w	sp!, {r4, r5, r6, r7, r8, r9, sl, pc}
    2b6a:	bf00      	nop
    2b6c:	10000210 	.word	0x10000210
    2b70:	100002e8 	.word	0x100002e8
    2b74:	00006183 	.word	0x00006183

00002b78 <htonl>:
    2b78:	ba00      	rev	r0, r0
    2b7a:	4770      	bx	lr

00002b7c <htonlp>:
    2b7c:	b538      	push	{r3, r4, r5, lr}
    2b7e:	4604      	mov	r4, r0
    2b80:	460d      	mov	r5, r1
    2b82:	e007      	b.n	2b94 <htonlp+0x18>
    2b84:	3d01      	subs	r5, #1
    2b86:	b2ed      	uxtb	r5, r5
    2b88:	f854 0025 	ldr.w	r0, [r4, r5, lsl #2]
    2b8c:	f7ff fff4 	bl	2b78 <htonl>
    2b90:	f844 0025 	str.w	r0, [r4, r5, lsl #2]
    2b94:	2d00      	cmp	r5, #0
    2b96:	d1f5      	bne.n	2b84 <htonlp+0x8>
    2b98:	bd38      	pop	{r3, r4, r5, pc}

00002b9a <xxtea_encode_words>:
    2b9a:	e92d 4ff7 	stmdb	sp!, {r0, r1, r2, r4, r5, r6, r7, r8, r9, sl, fp, lr}
    2b9e:	b2cb      	uxtb	r3, r1
    2ba0:	460d      	mov	r5, r1
    2ba2:	4619      	mov	r1, r3
    2ba4:	4604      	mov	r4, r0
    2ba6:	4616      	mov	r6, r2
    2ba8:	9301      	str	r3, [sp, #4]
    2baa:	2734      	movs	r7, #52	; 0x34
    2bac:	f7ff ffe6 	bl	2b7c <htonlp>
    2bb0:	1e6b      	subs	r3, r5, #1
    2bb2:	eb04 0883 	add.w	r8, r4, r3, lsl #2
    2bb6:	f854 2023 	ldr.w	r2, [r4, r3, lsl #2]
    2bba:	fb97 f7f5 	sdiv	r7, r7, r5
    2bbe:	2300      	movs	r3, #0
    2bc0:	f103 431e 	add.w	r3, r3, #2650800128	; 0x9e000000
    2bc4:	f503 135c 	add.w	r3, r3, #3604480	; 0x370000
    2bc8:	f503 43f4 	add.w	r3, r3, #31232	; 0x7a00
    2bcc:	3b47      	subs	r3, #71	; 0x47
    2bce:	ea4f 0993 	mov.w	r9, r3, lsr #2
    2bd2:	f009 0903 	and.w	r9, r9, #3
    2bd6:	4620      	mov	r0, r4
    2bd8:	2100      	movs	r1, #0
    2bda:	e01d      	b.n	2c18 <xxtea_encode_words+0x7e>
    2bdc:	f001 0a03 	and.w	sl, r1, #3
    2be0:	ea8a 0a09 	eor.w	sl, sl, r9
    2be4:	f8d0 c004 	ldr.w	ip, [r0, #4]
    2be8:	f856 b02a 	ldr.w	fp, [r6, sl, lsl #2]
    2bec:	ea83 0a0c 	eor.w	sl, r3, ip
    2bf0:	ea82 0b0b 	eor.w	fp, r2, fp
    2bf4:	44d3      	add	fp, sl
    2bf6:	ea4f 0adc 	mov.w	sl, ip, lsr #3
    2bfa:	ea4f 0c8c 	mov.w	ip, ip, lsl #2
    2bfe:	ea8a 1a02 	eor.w	sl, sl, r2, lsl #4
    2c02:	ea8c 1c52 	eor.w	ip, ip, r2, lsr #5
    2c06:	44d4      	add	ip, sl
    2c08:	f850 2b04 	ldr.w	r2, [r0], #4
    2c0c:	ea8b 0b0c 	eor.w	fp, fp, ip
    2c10:	445a      	add	r2, fp
    2c12:	f840 2c04 	str.w	r2, [r0, #-4]
    2c16:	3101      	adds	r1, #1
    2c18:	f105 3cff 	add.w	ip, r5, #4294967295
    2c1c:	4561      	cmp	r1, ip
    2c1e:	d3dd      	bcc.n	2bdc <xxtea_encode_words+0x42>
    2c20:	f00c 0c03 	and.w	ip, ip, #3
    2c24:	6821      	ldr	r1, [r4, #0]
    2c26:	ea89 090c 	eor.w	r9, r9, ip
    2c2a:	f856 c029 	ldr.w	ip, [r6, r9, lsl #2]
    2c2e:	0088      	lsls	r0, r1, #2
    2c30:	ea4f 0ad1 	mov.w	sl, r1, lsr #3
    2c34:	ea8a 1a02 	eor.w	sl, sl, r2, lsl #4
    2c38:	ea80 1052 	eor.w	r0, r0, r2, lsr #5
    2c3c:	ea83 0101 	eor.w	r1, r3, r1
    2c40:	ea82 020c 	eor.w	r2, r2, ip
    2c44:	1852      	adds	r2, r2, r1
    2c46:	4450      	add	r0, sl
    2c48:	f8d8 1000 	ldr.w	r1, [r8]
    2c4c:	ea80 0202 	eor.w	r2, r0, r2
    2c50:	3f01      	subs	r7, #1
    2c52:	1852      	adds	r2, r2, r1
    2c54:	f117 0f06 	cmn.w	r7, #6
    2c58:	f8c8 2000 	str.w	r2, [r8]
    2c5c:	d1b0      	bne.n	2bc0 <xxtea_encode_words+0x26>
    2c5e:	9901      	ldr	r1, [sp, #4]
    2c60:	4620      	mov	r0, r4
    2c62:	b003      	add	sp, #12
    2c64:	e8bd 4ff0 	ldmia.w	sp!, {r4, r5, r6, r7, r8, r9, sl, fp, lr}
    2c68:	f7ff bf88 	b.w	2b7c <htonlp>

00002c6c <xxtea_decode_words>:
    2c6c:	e92d 4ff1 	stmdb	sp!, {r0, r4, r5, r6, r7, r8, r9, sl, fp, lr}
    2c70:	b2ce      	uxtb	r6, r1
    2c72:	460d      	mov	r5, r1
    2c74:	4631      	mov	r1, r6
    2c76:	4604      	mov	r4, r0
    2c78:	4617      	mov	r7, r2
    2c7a:	f7ff ff7f 	bl	2b7c <htonlp>
    2c7e:	2334      	movs	r3, #52	; 0x34
    2c80:	4a2b      	ldr	r2, [pc, #172]	; (2d30 <xxtea_decode_words+0xc4>)
    2c82:	fb93 f3f5 	sdiv	r3, r3, r5
    2c86:	3306      	adds	r3, #6
    2c88:	4353      	muls	r3, r2
    2c8a:	f105 39ff 	add.w	r9, r5, #4294967295
    2c8e:	6822      	ldr	r2, [r4, #0]
    2c90:	eb04 0989 	add.w	r9, r4, r9, lsl #2
    2c94:	ea4f 0893 	mov.w	r8, r3, lsr #2
    2c98:	f008 0803 	and.w	r8, r8, #3
    2c9c:	1e68      	subs	r0, r5, #1
    2c9e:	eb04 0185 	add.w	r1, r4, r5, lsl #2
    2ca2:	e01e      	b.n	2ce2 <xxtea_decode_words+0x76>
    2ca4:	f000 0a03 	and.w	sl, r0, #3
    2ca8:	ea8a 0a08 	eor.w	sl, sl, r8
    2cac:	f851 cc08 	ldr.w	ip, [r1, #-8]
    2cb0:	f857 b02a 	ldr.w	fp, [r7, sl, lsl #2]
    2cb4:	ea82 0a03 	eor.w	sl, r2, r3
    2cb8:	ea8c 0b0b 	eor.w	fp, ip, fp
    2cbc:	44d3      	add	fp, sl
    2cbe:	ea4f 1a0c 	mov.w	sl, ip, lsl #4
    2cc2:	ea4f 1c5c 	mov.w	ip, ip, lsr #5
    2cc6:	ea8a 0ad2 	eor.w	sl, sl, r2, lsr #3
    2cca:	ea8c 0c82 	eor.w	ip, ip, r2, lsl #2
    2cce:	44e2      	add	sl, ip
    2cd0:	f851 2c04 	ldr.w	r2, [r1, #-4]
    2cd4:	ea8b 0b0a 	eor.w	fp, fp, sl
    2cd8:	ebcb 0202 	rsb	r2, fp, r2
    2cdc:	f841 2d04 	str.w	r2, [r1, #-4]!
    2ce0:	3801      	subs	r0, #1
    2ce2:	2800      	cmp	r0, #0
    2ce4:	d1de      	bne.n	2ca4 <xxtea_decode_words+0x38>
    2ce6:	f8d9 1000 	ldr.w	r1, [r9]
    2cea:	ea4f 1c01 	mov.w	ip, r1, lsl #4
    2cee:	0948      	lsrs	r0, r1, #5
    2cf0:	ea8c 0cd2 	eor.w	ip, ip, r2, lsr #3
    2cf4:	ea80 0082 	eor.w	r0, r0, r2, lsl #2
    2cf8:	4460      	add	r0, ip
    2cfa:	f857 c028 	ldr.w	ip, [r7, r8, lsl #2]
    2cfe:	405a      	eors	r2, r3
    2d00:	ea81 010c 	eor.w	r1, r1, ip
    2d04:	1851      	adds	r1, r2, r1
    2d06:	f103 43c2 	add.w	r3, r3, #1627389952	; 0x61000000
    2d0a:	ea80 0201 	eor.w	r2, r0, r1
    2d0e:	f503 0348 	add.w	r3, r3, #13107200	; 0xc80000
    2d12:	6821      	ldr	r1, [r4, #0]
    2d14:	f503 4306 	add.w	r3, r3, #34304	; 0x8600
    2d18:	1a8a      	subs	r2, r1, r2
    2d1a:	3347      	adds	r3, #71	; 0x47
    2d1c:	6022      	str	r2, [r4, #0]
    2d1e:	2b00      	cmp	r3, #0
    2d20:	d1b8      	bne.n	2c94 <xxtea_decode_words+0x28>
    2d22:	4620      	mov	r0, r4
    2d24:	4631      	mov	r1, r6
    2d26:	b001      	add	sp, #4
    2d28:	e8bd 4ff0 	ldmia.w	sp!, {r4, r5, r6, r7, r8, r9, sl, fp, lr}
    2d2c:	f7ff bf26 	b.w	2b7c <htonlp>
    2d30:	9e3779b9 	.word	0x9e3779b9

00002d34 <INT2CHARS>:
    2d34:	4603      	mov	r3, r0
    2d36:	0a0a      	lsrs	r2, r1, #8
    2d38:	f803 1b01 	strb.w	r1, [r3], #1
    2d3c:	7042      	strb	r2, [r0, #1]
    2d3e:	0c0a      	lsrs	r2, r1, #16
    2d40:	0e09      	lsrs	r1, r1, #24
    2d42:	705a      	strb	r2, [r3, #1]
    2d44:	7099      	strb	r1, [r3, #2]
    2d46:	4770      	bx	lr

00002d48 <CHARS2INT>:
    2d48:	7883      	ldrb	r3, [r0, #2]
    2d4a:	78c2      	ldrb	r2, [r0, #3]
    2d4c:	ea43 2202 	orr.w	r2, r3, r2, lsl #8
    2d50:	7843      	ldrb	r3, [r0, #1]
    2d52:	ea43 2202 	orr.w	r2, r3, r2, lsl #8
    2d56:	7803      	ldrb	r3, [r0, #0]
    2d58:	ea43 2002 	orr.w	r0, r3, r2, lsl #8
    2d5c:	4770      	bx	lr

00002d5e <bitstr_is_clear>:
    2d5e:	2300      	movs	r3, #0
    2d60:	e002      	b.n	2d68 <bitstr_is_clear+0xa>
    2d62:	3301      	adds	r3, #1
    2d64:	2b06      	cmp	r3, #6
    2d66:	d003      	beq.n	2d70 <bitstr_is_clear+0x12>
    2d68:	f850 2b04 	ldr.w	r2, [r0], #4
    2d6c:	2a00      	cmp	r2, #0
    2d6e:	d0f8      	beq.n	2d62 <bitstr_is_clear+0x4>
    2d70:	f1a3 0306 	sub.w	r3, r3, #6
    2d74:	4258      	negs	r0, r3
    2d76:	eb40 0003 	adc.w	r0, r0, r3
    2d7a:	4770      	bx	lr

00002d7c <bitstr_sizeinbits>:
    2d7c:	23c0      	movs	r3, #192	; 0xc0
    2d7e:	e002      	b.n	2d86 <bitstr_sizeinbits+0xa>
    2d80:	3804      	subs	r0, #4
    2d82:	3b20      	subs	r3, #32
    2d84:	d009      	beq.n	2d9a <bitstr_sizeinbits+0x1e>
    2d86:	6941      	ldr	r1, [r0, #20]
    2d88:	2900      	cmp	r1, #0
    2d8a:	d0f9      	beq.n	2d80 <bitstr_sizeinbits+0x4>
    2d8c:	f04f 4200 	mov.w	r2, #2147483648	; 0x80000000
    2d90:	e001      	b.n	2d96 <bitstr_sizeinbits+0x1a>
    2d92:	0852      	lsrs	r2, r2, #1
    2d94:	3b01      	subs	r3, #1
    2d96:	420a      	tst	r2, r1
    2d98:	d0fb      	beq.n	2d92 <bitstr_sizeinbits+0x16>
    2d9a:	4618      	mov	r0, r3
    2d9c:	4770      	bx	lr

00002d9e <bitstr_import>:
    2d9e:	b570      	push	{r4, r5, r6, lr}
    2da0:	4604      	mov	r4, r0
    2da2:	460e      	mov	r6, r1
    2da4:	f100 0518 	add.w	r5, r0, #24
    2da8:	4630      	mov	r0, r6
    2daa:	f7ff ffcd 	bl	2d48 <CHARS2INT>
    2dae:	f845 0d04 	str.w	r0, [r5, #-4]!
    2db2:	3604      	adds	r6, #4
    2db4:	42a5      	cmp	r5, r4
    2db6:	d1f7      	bne.n	2da8 <bitstr_import+0xa>
    2db8:	bd70      	pop	{r4, r5, r6, pc}

00002dba <bitstr_export>:
    2dba:	b570      	push	{r4, r5, r6, lr}
    2dbc:	4605      	mov	r5, r0
    2dbe:	460e      	mov	r6, r1
    2dc0:	f101 0418 	add.w	r4, r1, #24
    2dc4:	f854 1d04 	ldr.w	r1, [r4, #-4]!
    2dc8:	4628      	mov	r0, r5
    2dca:	f7ff ffb3 	bl	2d34 <INT2CHARS>
    2dce:	3504      	adds	r5, #4
    2dd0:	42b4      	cmp	r4, r6
    2dd2:	d1f7      	bne.n	2dc4 <bitstr_export+0xa>
    2dd4:	bd70      	pop	{r4, r5, r6, pc}

00002dd6 <letter2bin>:
    2dd6:	2839      	cmp	r0, #57	; 0x39
    2dd8:	d907      	bls.n	2dea <letter2bin+0x14>
    2dda:	2860      	cmp	r0, #96	; 0x60
    2ddc:	bf94      	ite	ls
    2dde:	2341      	movls	r3, #65	; 0x41
    2de0:	2361      	movhi	r3, #97	; 0x61
    2de2:	300a      	adds	r0, #10
    2de4:	1ac0      	subs	r0, r0, r3
    2de6:	b2c0      	uxtb	r0, r0
    2de8:	4770      	bx	lr
    2dea:	3830      	subs	r0, #48	; 0x30
    2dec:	b2c0      	uxtb	r0, r0
    2dee:	4770      	bx	lr

00002df0 <octet2bin>:
    2df0:	b538      	push	{r3, r4, r5, lr}
    2df2:	4604      	mov	r4, r0
    2df4:	7800      	ldrb	r0, [r0, #0]
    2df6:	f7ff ffee 	bl	2dd6 <letter2bin>
    2dfa:	4605      	mov	r5, r0
    2dfc:	7860      	ldrb	r0, [r4, #1]
    2dfe:	f7ff ffea 	bl	2dd6 <letter2bin>
    2e02:	ea40 1005 	orr.w	r0, r0, r5, lsl #4
    2e06:	b2c0      	uxtb	r0, r0
    2e08:	bd38      	pop	{r3, r4, r5, pc}

00002e0a <getword32>:
    2e0a:	b538      	push	{r3, r4, r5, lr}
    2e0c:	4605      	mov	r5, r0
    2e0e:	f7ff ffef 	bl	2df0 <octet2bin>
    2e12:	2400      	movs	r4, #0
    2e14:	f360 641f 	bfi	r4, r0, #24, #8
    2e18:	1ca8      	adds	r0, r5, #2
    2e1a:	f7ff ffe9 	bl	2df0 <octet2bin>
    2e1e:	f360 4417 	bfi	r4, r0, #16, #8
    2e22:	1d28      	adds	r0, r5, #4
    2e24:	f7ff ffe4 	bl	2df0 <octet2bin>
    2e28:	f360 240f 	bfi	r4, r0, #8, #8
    2e2c:	1da8      	adds	r0, r5, #6
    2e2e:	f7ff ffdf 	bl	2df0 <octet2bin>
    2e32:	f360 0407 	bfi	r4, r0, #0, #8
    2e36:	4620      	mov	r0, r4
    2e38:	bd38      	pop	{r3, r4, r5, pc}

00002e3a <field_add>:
    2e3a:	b530      	push	{r4, r5, lr}
    2e3c:	2300      	movs	r3, #0
    2e3e:	58d5      	ldr	r5, [r2, r3]
    2e40:	58cc      	ldr	r4, [r1, r3]
    2e42:	ea85 0404 	eor.w	r4, r5, r4
    2e46:	50c4      	str	r4, [r0, r3]
    2e48:	3304      	adds	r3, #4
    2e4a:	2b18      	cmp	r3, #24
    2e4c:	d1f7      	bne.n	2e3e <field_add+0x4>
    2e4e:	bd30      	pop	{r4, r5, pc}

00002e50 <XTEA_init_key>:
    2e50:	b538      	push	{r3, r4, r5, lr}
    2e52:	4604      	mov	r4, r0
    2e54:	4608      	mov	r0, r1
    2e56:	460d      	mov	r5, r1
    2e58:	f7ff ff76 	bl	2d48 <CHARS2INT>
    2e5c:	6020      	str	r0, [r4, #0]
    2e5e:	1d28      	adds	r0, r5, #4
    2e60:	f7ff ff72 	bl	2d48 <CHARS2INT>
    2e64:	6060      	str	r0, [r4, #4]
    2e66:	f105 0008 	add.w	r0, r5, #8
    2e6a:	f7ff ff6d 	bl	2d48 <CHARS2INT>
    2e6e:	60a0      	str	r0, [r4, #8]
    2e70:	f105 000c 	add.w	r0, r5, #12
    2e74:	f7ff ff68 	bl	2d48 <CHARS2INT>
    2e78:	60e0      	str	r0, [r4, #12]
    2e7a:	bd38      	pop	{r3, r4, r5, pc}

00002e7c <XTEA_encipher_block>:
    2e7c:	e92d 41f0 	stmdb	sp!, {r4, r5, r6, r7, r8, lr}
    2e80:	4606      	mov	r6, r0
    2e82:	4688      	mov	r8, r1
    2e84:	f7ff ff60 	bl	2d48 <CHARS2INT>
    2e88:	1d35      	adds	r5, r6, #4
    2e8a:	4607      	mov	r7, r0
    2e8c:	4628      	mov	r0, r5
    2e8e:	f7ff ff5b 	bl	2d48 <CHARS2INT>
    2e92:	2300      	movs	r3, #0
    2e94:	4604      	mov	r4, r0
    2e96:	f003 0203 	and.w	r2, r3, #3
    2e9a:	f858 1022 	ldr.w	r1, [r8, r2, lsl #2]
    2e9e:	0122      	lsls	r2, r4, #4
    2ea0:	1859      	adds	r1, r3, r1
    2ea2:	f103 431e 	add.w	r3, r3, #2650800128	; 0x9e000000
    2ea6:	f503 135c 	add.w	r3, r3, #3604480	; 0x370000
    2eaa:	ea82 1254 	eor.w	r2, r2, r4, lsr #5
    2eae:	f503 43f4 	add.w	r3, r3, #31232	; 0x7a00
    2eb2:	3b47      	subs	r3, #71	; 0x47
    2eb4:	1912      	adds	r2, r2, r4
    2eb6:	ea81 0202 	eor.w	r2, r1, r2
    2eba:	0ad9      	lsrs	r1, r3, #11
    2ebc:	18bf      	adds	r7, r7, r2
    2ebe:	f001 0103 	and.w	r1, r1, #3
    2ec2:	013a      	lsls	r2, r7, #4
    2ec4:	f858 1021 	ldr.w	r1, [r8, r1, lsl #2]
    2ec8:	ea82 1257 	eor.w	r2, r2, r7, lsr #5
    2ecc:	19d2      	adds	r2, r2, r7
    2ece:	1859      	adds	r1, r3, r1
    2ed0:	404a      	eors	r2, r1
    2ed2:	18a4      	adds	r4, r4, r2
    2ed4:	4a06      	ldr	r2, [pc, #24]	; (2ef0 <XTEA_encipher_block+0x74>)
    2ed6:	4293      	cmp	r3, r2
    2ed8:	d1dd      	bne.n	2e96 <XTEA_encipher_block+0x1a>
    2eda:	4630      	mov	r0, r6
    2edc:	4639      	mov	r1, r7
    2ede:	f7ff ff29 	bl	2d34 <INT2CHARS>
    2ee2:	4628      	mov	r0, r5
    2ee4:	4621      	mov	r1, r4
    2ee6:	e8bd 41f0 	ldmia.w	sp!, {r4, r5, r6, r7, r8, lr}
    2eea:	f7ff bf23 	b.w	2d34 <INT2CHARS>
    2eee:	bf00      	nop
    2ef0:	c6ef3720 	.word	0xc6ef3720

00002ef4 <field_mult>:
    2ef4:	b570      	push	{r4, r5, r6, lr}
    2ef6:	b086      	sub	sp, #24
    2ef8:	4616      	mov	r6, r2
    2efa:	4605      	mov	r5, r0
    2efc:	2218      	movs	r2, #24
    2efe:	4668      	mov	r0, sp
    2f00:	460c      	mov	r4, r1
    2f02:	f002 fd84 	bl	5a0e <memmove>
    2f06:	6831      	ldr	r1, [r6, #0]
    2f08:	f011 0101 	ands.w	r1, r1, #1
    2f0c:	d005      	beq.n	2f1a <field_mult+0x26>
    2f0e:	4628      	mov	r0, r5
    2f10:	4621      	mov	r1, r4
    2f12:	2218      	movs	r2, #24
    2f14:	f002 fd7b 	bl	5a0e <memmove>
    2f18:	e003      	b.n	2f22 <field_mult+0x2e>
    2f1a:	4628      	mov	r0, r5
    2f1c:	2218      	movs	r2, #24
    2f1e:	f002 fd55 	bl	59cc <memset>
    2f22:	2401      	movs	r4, #1
    2f24:	e026      	b.n	2f74 <field_mult+0x80>
    2f26:	6819      	ldr	r1, [r3, #0]
    2f28:	f853 0d04 	ldr.w	r0, [r3, #-4]!
    2f2c:	0049      	lsls	r1, r1, #1
    2f2e:	ea41 71d0 	orr.w	r1, r1, r0, lsr #31
    2f32:	4293      	cmp	r3, r2
    2f34:	6059      	str	r1, [r3, #4]
    2f36:	d1f6      	bne.n	2f26 <field_mult+0x32>
    2f38:	9b00      	ldr	r3, [sp, #0]
    2f3a:	005b      	lsls	r3, r3, #1
    2f3c:	9300      	str	r3, [sp, #0]
    2f3e:	9b05      	ldr	r3, [sp, #20]
    2f40:	f013 0f08 	tst.w	r3, #8
    2f44:	d004      	beq.n	2f50 <field_mult+0x5c>
    2f46:	4668      	mov	r0, sp
    2f48:	4669      	mov	r1, sp
    2f4a:	4a0d      	ldr	r2, [pc, #52]	; (2f80 <field_mult+0x8c>)
    2f4c:	f7ff ff75 	bl	2e3a <field_add>
    2f50:	1162      	asrs	r2, r4, #5
    2f52:	f856 2022 	ldr.w	r2, [r6, r2, lsl #2]
    2f56:	f004 031f 	and.w	r3, r4, #31
    2f5a:	fa32 f303 	lsrs.w	r3, r2, r3
    2f5e:	f013 0f01 	tst.w	r3, #1
    2f62:	d004      	beq.n	2f6e <field_mult+0x7a>
    2f64:	4628      	mov	r0, r5
    2f66:	4629      	mov	r1, r5
    2f68:	466a      	mov	r2, sp
    2f6a:	f7ff ff66 	bl	2e3a <field_add>
    2f6e:	3401      	adds	r4, #1
    2f70:	2ca3      	cmp	r4, #163	; 0xa3
    2f72:	d002      	beq.n	2f7a <field_mult+0x86>
    2f74:	466a      	mov	r2, sp
    2f76:	ab05      	add	r3, sp, #20
    2f78:	e7d5      	b.n	2f26 <field_mult+0x32>
    2f7a:	b006      	add	sp, #24
    2f7c:	bd70      	pop	{r4, r5, r6, pc}
    2f7e:	bf00      	nop
    2f80:	100001c8 	.word	0x100001c8

00002f84 <ECIES_embedded_public_key_validation>:
    2f84:	b530      	push	{r4, r5, lr}
    2f86:	b08d      	sub	sp, #52	; 0x34
    2f88:	4605      	mov	r5, r0
    2f8a:	460c      	mov	r4, r1
    2f8c:	f7ff fef6 	bl	2d7c <bitstr_sizeinbits>
    2f90:	28a3      	cmp	r0, #163	; 0xa3
    2f92:	dc3b      	bgt.n	300c <ECIES_embedded_public_key_validation+0x88>
    2f94:	4620      	mov	r0, r4
    2f96:	f7ff fef1 	bl	2d7c <bitstr_sizeinbits>
    2f9a:	28a3      	cmp	r0, #163	; 0xa3
    2f9c:	dc36      	bgt.n	300c <ECIES_embedded_public_key_validation+0x88>
    2f9e:	4628      	mov	r0, r5
    2fa0:	f7ff fedd 	bl	2d5e <bitstr_is_clear>
    2fa4:	b120      	cbz	r0, 2fb0 <ECIES_embedded_public_key_validation+0x2c>
    2fa6:	4620      	mov	r0, r4
    2fa8:	f7ff fed9 	bl	2d5e <bitstr_is_clear>
    2fac:	2800      	cmp	r0, #0
    2fae:	d12d      	bne.n	300c <ECIES_embedded_public_key_validation+0x88>
    2fb0:	a806      	add	r0, sp, #24
    2fb2:	4629      	mov	r1, r5
    2fb4:	462a      	mov	r2, r5
    2fb6:	f7ff ff9d 	bl	2ef4 <field_mult>
    2fba:	4668      	mov	r0, sp
    2fbc:	a906      	add	r1, sp, #24
    2fbe:	462a      	mov	r2, r5
    2fc0:	f7ff ff98 	bl	2ef4 <field_mult>
    2fc4:	a806      	add	r0, sp, #24
    2fc6:	4601      	mov	r1, r0
    2fc8:	466a      	mov	r2, sp
    2fca:	f7ff ff36 	bl	2e3a <field_add>
    2fce:	a806      	add	r0, sp, #24
    2fd0:	4601      	mov	r1, r0
    2fd2:	4a10      	ldr	r2, [pc, #64]	; (3014 <ECIES_embedded_public_key_validation+0x90>)
    2fd4:	f7ff ff31 	bl	2e3a <field_add>
    2fd8:	4668      	mov	r0, sp
    2fda:	4621      	mov	r1, r4
    2fdc:	4622      	mov	r2, r4
    2fde:	f7ff ff89 	bl	2ef4 <field_mult>
    2fe2:	a806      	add	r0, sp, #24
    2fe4:	4601      	mov	r1, r0
    2fe6:	466a      	mov	r2, sp
    2fe8:	f7ff ff27 	bl	2e3a <field_add>
    2fec:	4668      	mov	r0, sp
    2fee:	4629      	mov	r1, r5
    2ff0:	4622      	mov	r2, r4
    2ff2:	f7ff ff7f 	bl	2ef4 <field_mult>
    2ff6:	a806      	add	r0, sp, #24
    2ff8:	4669      	mov	r1, sp
    2ffa:	2218      	movs	r2, #24
    2ffc:	f002 fd21 	bl	5a42 <memcmp>
    3000:	2800      	cmp	r0, #0
    3002:	bf0c      	ite	eq
    3004:	2001      	moveq	r0, #1
    3006:	f04f 30ff 	movne.w	r0, #4294967295
    300a:	e001      	b.n	3010 <ECIES_embedded_public_key_validation+0x8c>
    300c:	f04f 30ff 	mov.w	r0, #4294967295
    3010:	b00d      	add	sp, #52	; 0x34
    3012:	bd30      	pop	{r4, r5, pc}
    3014:	100001e0 	.word	0x100001e0

00003018 <bitstr_lshift>:
    3018:	2a00      	cmp	r2, #0
    301a:	b570      	push	{r4, r5, r6, lr}
    301c:	4616      	mov	r6, r2
    301e:	bfb8      	it	lt
    3020:	f102 061f 	addlt.w	r6, r2, #31
    3024:	1176      	asrs	r6, r6, #5
    3026:	00b6      	lsls	r6, r6, #2
    3028:	4604      	mov	r4, r0
    302a:	4615      	mov	r5, r2
    302c:	1980      	adds	r0, r0, r6
    302e:	f1c6 0218 	rsb	r2, r6, #24
    3032:	f002 fcec 	bl	5a0e <memmove>
    3036:	2100      	movs	r1, #0
    3038:	4620      	mov	r0, r4
    303a:	4632      	mov	r2, r6
    303c:	f002 fcc6 	bl	59cc <memset>
    3040:	4b0e      	ldr	r3, [pc, #56]	; (307c <bitstr_lshift+0x64>)
    3042:	ea05 0303 	and.w	r3, r5, r3
    3046:	2b00      	cmp	r3, #0
    3048:	da03      	bge.n	3052 <bitstr_lshift+0x3a>
    304a:	3b01      	subs	r3, #1
    304c:	f063 031f 	orn	r3, r3, #31
    3050:	3301      	adds	r3, #1
    3052:	b18b      	cbz	r3, 3078 <bitstr_lshift+0x60>
    3054:	4622      	mov	r2, r4
    3056:	2105      	movs	r1, #5
    3058:	6915      	ldr	r5, [r2, #16]
    305a:	f1c3 0020 	rsb	r0, r3, #32
    305e:	fa35 f000 	lsrs.w	r0, r5, r0
    3062:	6955      	ldr	r5, [r2, #20]
    3064:	409d      	lsls	r5, r3
    3066:	4328      	orrs	r0, r5
    3068:	6150      	str	r0, [r2, #20]
    306a:	3a04      	subs	r2, #4
    306c:	3901      	subs	r1, #1
    306e:	d1f3      	bne.n	3058 <bitstr_lshift+0x40>
    3070:	6822      	ldr	r2, [r4, #0]
    3072:	fa12 f303 	lsls.w	r3, r2, r3
    3076:	6023      	str	r3, [r4, #0]
    3078:	bd70      	pop	{r4, r5, r6, pc}
    307a:	bf00      	nop
    307c:	8000001f 	.word	0x8000001f

00003080 <field_invert>:
    3080:	b530      	push	{r4, r5, lr}
    3082:	b09f      	sub	sp, #124	; 0x7c
    3084:	4604      	mov	r4, r0
    3086:	2218      	movs	r2, #24
    3088:	a818      	add	r0, sp, #96	; 0x60
    308a:	f002 fcc0 	bl	5a0e <memmove>
    308e:	2218      	movs	r2, #24
    3090:	a812      	add	r0, sp, #72	; 0x48
    3092:	492e      	ldr	r1, [pc, #184]	; (314c <field_invert+0xcc>)
    3094:	f002 fcbb 	bl	5a0e <memmove>
    3098:	2100      	movs	r1, #0
    309a:	2218      	movs	r2, #24
    309c:	a80c      	add	r0, sp, #48	; 0x30
    309e:	f002 fc95 	bl	59cc <memset>
    30a2:	4620      	mov	r0, r4
    30a4:	2301      	movs	r3, #1
    30a6:	f840 3b04 	str.w	r3, [r0], #4
    30aa:	2100      	movs	r1, #0
    30ac:	2214      	movs	r2, #20
    30ae:	f002 fc8d 	bl	59cc <memset>
    30b2:	e03b      	b.n	312c <field_invert+0xac>
    30b4:	a818      	add	r0, sp, #96	; 0x60
    30b6:	f7ff fe61 	bl	2d7c <bitstr_sizeinbits>
    30ba:	4605      	mov	r5, r0
    30bc:	a812      	add	r0, sp, #72	; 0x48
    30be:	f7ff fe5d 	bl	2d7c <bitstr_sizeinbits>
    30c2:	1a2d      	subs	r5, r5, r0
    30c4:	d51e      	bpl.n	3104 <field_invert+0x84>
    30c6:	a918      	add	r1, sp, #96	; 0x60
    30c8:	2218      	movs	r2, #24
    30ca:	4668      	mov	r0, sp
    30cc:	f002 fc9f 	bl	5a0e <memmove>
    30d0:	a912      	add	r1, sp, #72	; 0x48
    30d2:	2218      	movs	r2, #24
    30d4:	a818      	add	r0, sp, #96	; 0x60
    30d6:	f002 fc9a 	bl	5a0e <memmove>
    30da:	4669      	mov	r1, sp
    30dc:	2218      	movs	r2, #24
    30de:	a812      	add	r0, sp, #72	; 0x48
    30e0:	f002 fc95 	bl	5a0e <memmove>
    30e4:	a90c      	add	r1, sp, #48	; 0x30
    30e6:	2218      	movs	r2, #24
    30e8:	4668      	mov	r0, sp
    30ea:	f002 fc90 	bl	5a0e <memmove>
    30ee:	4621      	mov	r1, r4
    30f0:	2218      	movs	r2, #24
    30f2:	a80c      	add	r0, sp, #48	; 0x30
    30f4:	f002 fc8b 	bl	5a0e <memmove>
    30f8:	4620      	mov	r0, r4
    30fa:	4669      	mov	r1, sp
    30fc:	2218      	movs	r2, #24
    30fe:	f002 fc86 	bl	5a0e <memmove>
    3102:	426d      	negs	r5, r5
    3104:	a806      	add	r0, sp, #24
    3106:	a912      	add	r1, sp, #72	; 0x48
    3108:	462a      	mov	r2, r5
    310a:	f7ff ff85 	bl	3018 <bitstr_lshift>
    310e:	a818      	add	r0, sp, #96	; 0x60
    3110:	4601      	mov	r1, r0
    3112:	aa06      	add	r2, sp, #24
    3114:	f7ff fe91 	bl	2e3a <field_add>
    3118:	a806      	add	r0, sp, #24
    311a:	a90c      	add	r1, sp, #48	; 0x30
    311c:	462a      	mov	r2, r5
    311e:	f7ff ff7b 	bl	3018 <bitstr_lshift>
    3122:	4620      	mov	r0, r4
    3124:	4621      	mov	r1, r4
    3126:	aa06      	add	r2, sp, #24
    3128:	f7ff fe87 	bl	2e3a <field_add>
    312c:	9b18      	ldr	r3, [sp, #96]	; 0x60
    312e:	2b01      	cmp	r3, #1
    3130:	d1c0      	bne.n	30b4 <field_invert+0x34>
    3132:	aa18      	add	r2, sp, #96	; 0x60
    3134:	e002      	b.n	313c <field_invert+0xbc>
    3136:	3301      	adds	r3, #1
    3138:	2b06      	cmp	r3, #6
    313a:	d005      	beq.n	3148 <field_invert+0xc8>
    313c:	f852 1f04 	ldr.w	r1, [r2, #4]!
    3140:	2900      	cmp	r1, #0
    3142:	d0f8      	beq.n	3136 <field_invert+0xb6>
    3144:	2b06      	cmp	r3, #6
    3146:	d1b5      	bne.n	30b4 <field_invert+0x34>
    3148:	b01f      	add	sp, #124	; 0x7c
    314a:	bd30      	pop	{r4, r5, pc}
    314c:	100001c8 	.word	0x100001c8

00003150 <point_double>:
    3150:	b530      	push	{r4, r5, lr}
    3152:	b087      	sub	sp, #28
    3154:	4604      	mov	r4, r0
    3156:	460d      	mov	r5, r1
    3158:	f7ff fe01 	bl	2d5e <bitstr_is_clear>
    315c:	2800      	cmp	r0, #0
    315e:	d12b      	bne.n	31b8 <point_double+0x68>
    3160:	4668      	mov	r0, sp
    3162:	4621      	mov	r1, r4
    3164:	f7ff ff8c 	bl	3080 <field_invert>
    3168:	4668      	mov	r0, sp
    316a:	4669      	mov	r1, sp
    316c:	462a      	mov	r2, r5
    316e:	f7ff fec1 	bl	2ef4 <field_mult>
    3172:	4668      	mov	r0, sp
    3174:	4669      	mov	r1, sp
    3176:	4622      	mov	r2, r4
    3178:	f7ff fe5f 	bl	2e3a <field_add>
    317c:	4628      	mov	r0, r5
    317e:	4621      	mov	r1, r4
    3180:	4622      	mov	r2, r4
    3182:	f7ff feb7 	bl	2ef4 <field_mult>
    3186:	4620      	mov	r0, r4
    3188:	4669      	mov	r1, sp
    318a:	466a      	mov	r2, sp
    318c:	f7ff feb2 	bl	2ef4 <field_mult>
    3190:	9b00      	ldr	r3, [sp, #0]
    3192:	4620      	mov	r0, r4
    3194:	f083 0301 	eor.w	r3, r3, #1
    3198:	4621      	mov	r1, r4
    319a:	466a      	mov	r2, sp
    319c:	9300      	str	r3, [sp, #0]
    319e:	f7ff fe4c 	bl	2e3a <field_add>
    31a2:	4668      	mov	r0, sp
    31a4:	4669      	mov	r1, sp
    31a6:	4622      	mov	r2, r4
    31a8:	f7ff fea4 	bl	2ef4 <field_mult>
    31ac:	4628      	mov	r0, r5
    31ae:	4629      	mov	r1, r5
    31b0:	466a      	mov	r2, sp
    31b2:	f7ff fe42 	bl	2e3a <field_add>
    31b6:	e004      	b.n	31c2 <point_double+0x72>
    31b8:	4628      	mov	r0, r5
    31ba:	2100      	movs	r1, #0
    31bc:	2218      	movs	r2, #24
    31be:	f002 fc05 	bl	59cc <memset>
    31c2:	b007      	add	sp, #28
    31c4:	bd30      	pop	{r4, r5, pc}

000031c6 <point_mult>:
    31c6:	e92d 41f0 	stmdb	sp!, {r4, r5, r6, r7, r8, lr}
    31ca:	b0a4      	sub	sp, #144	; 0x90
    31cc:	4690      	mov	r8, r2
    31ce:	4605      	mov	r5, r0
    31d0:	2218      	movs	r2, #24
    31d2:	460c      	mov	r4, r1
    31d4:	a81e      	add	r0, sp, #120	; 0x78
    31d6:	2100      	movs	r1, #0
    31d8:	f002 fbf8 	bl	59cc <memset>
    31dc:	2100      	movs	r1, #0
    31de:	2218      	movs	r2, #24
    31e0:	a818      	add	r0, sp, #96	; 0x60
    31e2:	f002 fbf3 	bl	59cc <memset>
    31e6:	4640      	mov	r0, r8
    31e8:	f7ff fdc8 	bl	2d7c <bitstr_sizeinbits>
    31ec:	1e46      	subs	r6, r0, #1
    31ee:	e083      	b.n	32f8 <point_mult+0x132>
    31f0:	a81e      	add	r0, sp, #120	; 0x78
    31f2:	a918      	add	r1, sp, #96	; 0x60
    31f4:	f7ff ffac 	bl	3150 <point_double>
    31f8:	1172      	asrs	r2, r6, #5
    31fa:	f858 2022 	ldr.w	r2, [r8, r2, lsl #2]
    31fe:	f006 031f 	and.w	r3, r6, #31
    3202:	fa32 f303 	lsrs.w	r3, r2, r3
    3206:	f013 0f01 	tst.w	r3, #1
    320a:	d074      	beq.n	32f6 <point_mult+0x130>
    320c:	4628      	mov	r0, r5
    320e:	f7ff fda6 	bl	2d5e <bitstr_is_clear>
    3212:	b120      	cbz	r0, 321e <point_mult+0x58>
    3214:	4620      	mov	r0, r4
    3216:	f7ff fda2 	bl	2d5e <bitstr_is_clear>
    321a:	2800      	cmp	r0, #0
    321c:	d16b      	bne.n	32f6 <point_mult+0x130>
    321e:	a81e      	add	r0, sp, #120	; 0x78
    3220:	f7ff fd9d 	bl	2d5e <bitstr_is_clear>
    3224:	b158      	cbz	r0, 323e <point_mult+0x78>
    3226:	a818      	add	r0, sp, #96	; 0x60
    3228:	f7ff fd99 	bl	2d5e <bitstr_is_clear>
    322c:	b138      	cbz	r0, 323e <point_mult+0x78>
    322e:	4629      	mov	r1, r5
    3230:	a81e      	add	r0, sp, #120	; 0x78
    3232:	2218      	movs	r2, #24
    3234:	f002 fbeb 	bl	5a0e <memmove>
    3238:	a818      	add	r0, sp, #96	; 0x60
    323a:	4621      	mov	r1, r4
    323c:	e058      	b.n	32f0 <point_mult+0x12a>
    323e:	a81e      	add	r0, sp, #120	; 0x78
    3240:	4629      	mov	r1, r5
    3242:	2218      	movs	r2, #24
    3244:	f002 fbfd 	bl	5a42 <memcmp>
    3248:	4607      	mov	r7, r0
    324a:	b9a8      	cbnz	r0, 3278 <point_mult+0xb2>
    324c:	a818      	add	r0, sp, #96	; 0x60
    324e:	4621      	mov	r1, r4
    3250:	2218      	movs	r2, #24
    3252:	f002 fbf6 	bl	5a42 <memcmp>
    3256:	b920      	cbnz	r0, 3262 <point_mult+0x9c>
    3258:	a81e      	add	r0, sp, #120	; 0x78
    325a:	a918      	add	r1, sp, #96	; 0x60
    325c:	f7ff ff78 	bl	3150 <point_double>
    3260:	e049      	b.n	32f6 <point_mult+0x130>
    3262:	4639      	mov	r1, r7
    3264:	2218      	movs	r2, #24
    3266:	a81e      	add	r0, sp, #120	; 0x78
    3268:	f002 fbb0 	bl	59cc <memset>
    326c:	a818      	add	r0, sp, #96	; 0x60
    326e:	4639      	mov	r1, r7
    3270:	2218      	movs	r2, #24
    3272:	f002 fbab 	bl	59cc <memset>
    3276:	e03e      	b.n	32f6 <point_mult+0x130>
    3278:	a812      	add	r0, sp, #72	; 0x48
    327a:	a918      	add	r1, sp, #96	; 0x60
    327c:	4622      	mov	r2, r4
    327e:	f7ff fddc 	bl	2e3a <field_add>
    3282:	462a      	mov	r2, r5
    3284:	a80c      	add	r0, sp, #48	; 0x30
    3286:	a91e      	add	r1, sp, #120	; 0x78
    3288:	f7ff fdd7 	bl	2e3a <field_add>
    328c:	a806      	add	r0, sp, #24
    328e:	a90c      	add	r1, sp, #48	; 0x30
    3290:	f7ff fef6 	bl	3080 <field_invert>
    3294:	a806      	add	r0, sp, #24
    3296:	4601      	mov	r1, r0
    3298:	aa12      	add	r2, sp, #72	; 0x48
    329a:	f7ff fe2b 	bl	2ef4 <field_mult>
    329e:	a906      	add	r1, sp, #24
    32a0:	460a      	mov	r2, r1
    32a2:	4668      	mov	r0, sp
    32a4:	f7ff fe26 	bl	2ef4 <field_mult>
    32a8:	4668      	mov	r0, sp
    32aa:	4669      	mov	r1, sp
    32ac:	aa06      	add	r2, sp, #24
    32ae:	f7ff fdc4 	bl	2e3a <field_add>
    32b2:	4668      	mov	r0, sp
    32b4:	4669      	mov	r1, sp
    32b6:	aa0c      	add	r2, sp, #48	; 0x30
    32b8:	f7ff fdbf 	bl	2e3a <field_add>
    32bc:	9b00      	ldr	r3, [sp, #0]
    32be:	a81e      	add	r0, sp, #120	; 0x78
    32c0:	f083 0301 	eor.w	r3, r3, #1
    32c4:	4601      	mov	r1, r0
    32c6:	466a      	mov	r2, sp
    32c8:	9300      	str	r3, [sp, #0]
    32ca:	f7ff fdb6 	bl	2e3a <field_add>
    32ce:	a812      	add	r0, sp, #72	; 0x48
    32d0:	a91e      	add	r1, sp, #120	; 0x78
    32d2:	aa06      	add	r2, sp, #24
    32d4:	f7ff fe0e 	bl	2ef4 <field_mult>
    32d8:	a812      	add	r0, sp, #72	; 0x48
    32da:	4601      	mov	r1, r0
    32dc:	466a      	mov	r2, sp
    32de:	f7ff fdac 	bl	2e3a <field_add>
    32e2:	a818      	add	r0, sp, #96	; 0x60
    32e4:	4601      	mov	r1, r0
    32e6:	aa12      	add	r2, sp, #72	; 0x48
    32e8:	f7ff fda7 	bl	2e3a <field_add>
    32ec:	a81e      	add	r0, sp, #120	; 0x78
    32ee:	4669      	mov	r1, sp
    32f0:	2218      	movs	r2, #24
    32f2:	f002 fb8c 	bl	5a0e <memmove>
    32f6:	3e01      	subs	r6, #1
    32f8:	2e00      	cmp	r6, #0
    32fa:	f6bf af79 	bge.w	31f0 <point_mult+0x2a>
    32fe:	a91e      	add	r1, sp, #120	; 0x78
    3300:	2218      	movs	r2, #24
    3302:	4628      	mov	r0, r5
    3304:	f002 fb83 	bl	5a0e <memmove>
    3308:	4620      	mov	r0, r4
    330a:	a918      	add	r1, sp, #96	; 0x60
    330c:	2218      	movs	r2, #24
    330e:	f002 fb7e 	bl	5a0e <memmove>
    3312:	b024      	add	sp, #144	; 0x90
    3314:	e8bd 81f0 	ldmia.w	sp!, {r4, r5, r6, r7, r8, pc}

00003318 <bitstr_parse>:
    3318:	e92d 43f8 	stmdb	sp!, {r3, r4, r5, r6, r7, r8, r9, lr}
    331c:	4606      	mov	r6, r0
    331e:	4608      	mov	r0, r1
    3320:	460c      	mov	r4, r1
    3322:	f002 fb9c 	bl	5a5e <strlen>
    3326:	2100      	movs	r1, #0
    3328:	4605      	mov	r5, r0
    332a:	2218      	movs	r2, #24
    332c:	4607      	mov	r7, r0
    332e:	4630      	mov	r0, r6
    3330:	f002 fb4c 	bl	59cc <memset>
    3334:	2d00      	cmp	r5, #0
    3336:	46a8      	mov	r8, r5
    3338:	bfb8      	it	lt
    333a:	f105 0807 	addlt.w	r8, r5, #7
    333e:	ea4f 08e8 	mov.w	r8, r8, asr #3
    3342:	f015 0f07 	tst.w	r5, #7
    3346:	eb06 0988 	add.w	r9, r6, r8, lsl #2
    334a:	d014      	beq.n	3376 <bitstr_parse+0x5e>
    334c:	4620      	mov	r0, r4
    334e:	f7ff fd5c 	bl	2e0a <getword32>
    3352:	4b10      	ldr	r3, [pc, #64]	; (3394 <bitstr_parse+0x7c>)
    3354:	ea05 0303 	and.w	r3, r5, r3
    3358:	2b00      	cmp	r3, #0
    335a:	da03      	bge.n	3364 <bitstr_parse+0x4c>
    335c:	3b01      	subs	r3, #1
    335e:	f063 0307 	orn	r3, r3, #7
    3362:	3301      	adds	r3, #1
    3364:	f1c3 0208 	rsb	r2, r3, #8
    3368:	0092      	lsls	r2, r2, #2
    336a:	40d0      	lsrs	r0, r2
    336c:	18e4      	adds	r4, r4, r3
    336e:	f846 0028 	str.w	r0, [r6, r8, lsl #2]
    3372:	f025 0707 	bic.w	r7, r5, #7
    3376:	464d      	mov	r5, r9
    3378:	e005      	b.n	3386 <bitstr_parse+0x6e>
    337a:	4620      	mov	r0, r4
    337c:	f7ff fd45 	bl	2e0a <getword32>
    3380:	3408      	adds	r4, #8
    3382:	f845 0d04 	str.w	r0, [r5, #-4]!
    3386:	7823      	ldrb	r3, [r4, #0]
    3388:	2b00      	cmp	r3, #0
    338a:	d1f6      	bne.n	337a <bitstr_parse+0x62>
    338c:	4638      	mov	r0, r7
    338e:	e8bd 83f8 	ldmia.w	sp!, {r3, r4, r5, r6, r7, r8, r9, pc}
    3392:	bf00      	nop
    3394:	80000007 	.word	0x80000007

00003398 <get_random_exponent>:
    3398:	b530      	push	{r4, r5, lr}
    339a:	4604      	mov	r4, r0
    339c:	b087      	sub	sp, #28
    339e:	2500      	movs	r5, #0
    33a0:	e009      	b.n	33b6 <get_random_exponent+0x1e>
    33a2:	f000 f96f 	bl	3684 <getRandom>
    33a6:	aa06      	add	r2, sp, #24
    33a8:	1953      	adds	r3, r2, r5
    33aa:	f803 0c18 	strb.w	r0, [r3, #-24]
    33ae:	3501      	adds	r5, #1
    33b0:	e001      	b.n	33b6 <get_random_exponent+0x1e>
    33b2:	2500      	movs	r5, #0
    33b4:	e7f5      	b.n	33a2 <get_random_exponent+0xa>
    33b6:	2d17      	cmp	r5, #23
    33b8:	ddf3      	ble.n	33a2 <get_random_exponent+0xa>
    33ba:	4620      	mov	r0, r4
    33bc:	4669      	mov	r1, sp
    33be:	f7ff fcee 	bl	2d9e <bitstr_import>
    33c2:	4813      	ldr	r0, [pc, #76]	; (3410 <get_random_exponent+0x78>)
    33c4:	f7ff fcda 	bl	2d7c <bitstr_sizeinbits>
    33c8:	3801      	subs	r0, #1
    33ca:	e018      	b.n	33fe <get_random_exponent+0x66>
    33cc:	4b11      	ldr	r3, [pc, #68]	; (3414 <get_random_exponent+0x7c>)
    33ce:	2800      	cmp	r0, #0
    33d0:	4602      	mov	r2, r0
    33d2:	ea00 0303 	and.w	r3, r0, r3
    33d6:	bfb8      	it	lt
    33d8:	f100 021f 	addlt.w	r2, r0, #31
    33dc:	1152      	asrs	r2, r2, #5
    33de:	2b00      	cmp	r3, #0
    33e0:	da03      	bge.n	33ea <get_random_exponent+0x52>
    33e2:	3b01      	subs	r3, #1
    33e4:	f063 031f 	orn	r3, r3, #31
    33e8:	3301      	adds	r3, #1
    33ea:	2101      	movs	r1, #1
    33ec:	fa11 f303 	lsls.w	r3, r1, r3
    33f0:	f854 1022 	ldr.w	r1, [r4, r2, lsl #2]
    33f4:	3001      	adds	r0, #1
    33f6:	ea21 0303 	bic.w	r3, r1, r3
    33fa:	f844 3022 	str.w	r3, [r4, r2, lsl #2]
    33fe:	28bf      	cmp	r0, #191	; 0xbf
    3400:	dde4      	ble.n	33cc <get_random_exponent+0x34>
    3402:	4620      	mov	r0, r4
    3404:	f7ff fcab 	bl	2d5e <bitstr_is_clear>
    3408:	2800      	cmp	r0, #0
    340a:	d1d2      	bne.n	33b2 <get_random_exponent+0x1a>
    340c:	b007      	add	sp, #28
    340e:	bd30      	pop	{r4, r5, pc}
    3410:	100001b0 	.word	0x100001b0
    3414:	8000001f 	.word	0x8000001f

00003418 <XTEA_davies_meyer.clone.0>:
    3418:	b570      	push	{r4, r5, r6, lr}
    341a:	2208      	movs	r2, #8
    341c:	b086      	sub	sp, #24
    341e:	460d      	mov	r5, r1
    3420:	2100      	movs	r1, #0
    3422:	4606      	mov	r6, r0
    3424:	2406      	movs	r4, #6
    3426:	f002 fad1 	bl	59cc <memset>
    342a:	e017      	b.n	345c <XTEA_davies_meyer.clone.0+0x44>
    342c:	4668      	mov	r0, sp
    342e:	4629      	mov	r1, r5
    3430:	f7ff fd0e 	bl	2e50 <XTEA_init_key>
    3434:	4631      	mov	r1, r6
    3436:	2208      	movs	r2, #8
    3438:	a804      	add	r0, sp, #16
    343a:	f002 fae8 	bl	5a0e <memmove>
    343e:	a804      	add	r0, sp, #16
    3440:	4669      	mov	r1, sp
    3442:	f7ff fd1b 	bl	2e7c <XTEA_encipher_block>
    3446:	2300      	movs	r3, #0
    3448:	aa04      	add	r2, sp, #16
    344a:	5cd1      	ldrb	r1, [r2, r3]
    344c:	5cf2      	ldrb	r2, [r6, r3]
    344e:	ea81 0202 	eor.w	r2, r1, r2
    3452:	54f2      	strb	r2, [r6, r3]
    3454:	3301      	adds	r3, #1
    3456:	2b08      	cmp	r3, #8
    3458:	d1f6      	bne.n	3448 <XTEA_davies_meyer.clone.0+0x30>
    345a:	3510      	adds	r5, #16
    345c:	3c01      	subs	r4, #1
    345e:	d1e5      	bne.n	342c <XTEA_davies_meyer.clone.0+0x14>
    3460:	b006      	add	sp, #24
    3462:	bd70      	pop	{r4, r5, r6, pc}

00003464 <ECIES_kdf>:
    3464:	e92d 43f8 	stmdb	sp!, {r3, r4, r5, r6, r7, r8, r9, lr}
    3468:	af00      	add	r7, sp, #0
    346a:	b096      	sub	sp, #88	; 0x58
    346c:	4605      	mov	r5, r0
    346e:	460c      	mov	r4, r1
    3470:	4616      	mov	r6, r2
    3472:	2100      	movs	r1, #0
    3474:	2250      	movs	r2, #80	; 0x50
    3476:	4668      	mov	r0, sp
    3478:	4699      	mov	r9, r3
    347a:	f002 faa7 	bl	59cc <memset>
    347e:	4668      	mov	r0, sp
    3480:	4631      	mov	r1, r6
    3482:	f7ff fc9a 	bl	2dba <bitstr_export>
    3486:	a806      	add	r0, sp, #24
    3488:	4649      	mov	r1, r9
    348a:	f7ff fc96 	bl	2dba <bitstr_export>
    348e:	a80c      	add	r0, sp, #48	; 0x30
    3490:	6a39      	ldr	r1, [r7, #32]
    3492:	f7ff fc92 	bl	2dba <bitstr_export>
    3496:	46e8      	mov	r8, sp
    3498:	2300      	movs	r3, #0
    349a:	4628      	mov	r0, r5
    349c:	4669      	mov	r1, sp
    349e:	f888 3048 	strb.w	r3, [r8, #72]	; 0x48
    34a2:	f7ff ffb9 	bl	3418 <XTEA_davies_meyer.clone.0>
    34a6:	2301      	movs	r3, #1
    34a8:	f105 0008 	add.w	r0, r5, #8
    34ac:	4669      	mov	r1, sp
    34ae:	f888 3048 	strb.w	r3, [r8, #72]	; 0x48
    34b2:	f7ff ffb1 	bl	3418 <XTEA_davies_meyer.clone.0>
    34b6:	2302      	movs	r3, #2
    34b8:	4620      	mov	r0, r4
    34ba:	4669      	mov	r1, sp
    34bc:	f888 3048 	strb.w	r3, [r8, #72]	; 0x48
    34c0:	f7ff ffaa 	bl	3418 <XTEA_davies_meyer.clone.0>
    34c4:	2303      	movs	r3, #3
    34c6:	f104 0008 	add.w	r0, r4, #8
    34ca:	4669      	mov	r1, sp
    34cc:	f888 3048 	strb.w	r3, [r8, #72]	; 0x48
    34d0:	f7ff ffa2 	bl	3418 <XTEA_davies_meyer.clone.0>
    34d4:	46bd      	mov	sp, r7
    34d6:	e8bd 83f8 	ldmia.w	sp!, {r3, r4, r5, r6, r7, r8, r9, pc}

000034da <bitstr_parse_export>:
    34da:	b510      	push	{r4, lr}
    34dc:	b086      	sub	sp, #24
    34de:	4604      	mov	r4, r0
    34e0:	4668      	mov	r0, sp
    34e2:	f7ff ff19 	bl	3318 <bitstr_parse>
    34e6:	f1b0 3fff 	cmp.w	r0, #4294967295
    34ea:	d004      	beq.n	34f6 <bitstr_parse_export+0x1c>
    34ec:	4620      	mov	r0, r4
    34ee:	4669      	mov	r1, sp
    34f0:	f7ff fc63 	bl	2dba <bitstr_export>
    34f4:	2000      	movs	r0, #0
    34f6:	b006      	add	sp, #24
    34f8:	bd10      	pop	{r4, pc}
	...

000034fc <ECIES_encyptkeygen>:
    34fc:	b5f0      	push	{r4, r5, r6, r7, lr}
    34fe:	4606      	mov	r6, r0
    3500:	b0a1      	sub	sp, #132	; 0x84
    3502:	460c      	mov	r4, r1
    3504:	4615      	mov	r5, r2
    3506:	461f      	mov	r7, r3
    3508:	a802      	add	r0, sp, #8
    350a:	f7ff ff45 	bl	3398 <get_random_exponent>
    350e:	a80e      	add	r0, sp, #56	; 0x38
    3510:	4631      	mov	r1, r6
    3512:	f7ff fc44 	bl	2d9e <bitstr_import>
    3516:	a808      	add	r0, sp, #32
    3518:	4621      	mov	r1, r4
    351a:	f7ff fc40 	bl	2d9e <bitstr_import>
    351e:	a80e      	add	r0, sp, #56	; 0x38
    3520:	a908      	add	r1, sp, #32
    3522:	aa02      	add	r2, sp, #8
    3524:	f7ff fe4f 	bl	31c6 <point_mult>
    3528:	a80e      	add	r0, sp, #56	; 0x38
    352a:	a908      	add	r1, sp, #32
    352c:	f7ff fe10 	bl	3150 <point_double>
    3530:	a80e      	add	r0, sp, #56	; 0x38
    3532:	f7ff fc14 	bl	2d5e <bitstr_is_clear>
    3536:	b120      	cbz	r0, 3542 <ECIES_encyptkeygen+0x46>
    3538:	a808      	add	r0, sp, #32
    353a:	f7ff fc10 	bl	2d5e <bitstr_is_clear>
    353e:	2800      	cmp	r0, #0
    3540:	d1e2      	bne.n	3508 <ECIES_encyptkeygen+0xc>
    3542:	ac14      	add	r4, sp, #80	; 0x50
    3544:	2218      	movs	r2, #24
    3546:	a81a      	add	r0, sp, #104	; 0x68
    3548:	490e      	ldr	r1, [pc, #56]	; (3584 <ECIES_encyptkeygen+0x88>)
    354a:	f002 fa60 	bl	5a0e <memmove>
    354e:	2218      	movs	r2, #24
    3550:	4620      	mov	r0, r4
    3552:	490d      	ldr	r1, [pc, #52]	; (3588 <ECIES_encyptkeygen+0x8c>)
    3554:	f002 fa5b 	bl	5a0e <memmove>
    3558:	a81a      	add	r0, sp, #104	; 0x68
    355a:	4621      	mov	r1, r4
    355c:	aa02      	add	r2, sp, #8
    355e:	f7ff fe32 	bl	31c6 <point_mult>
    3562:	4628      	mov	r0, r5
    3564:	4639      	mov	r1, r7
    3566:	aa0e      	add	r2, sp, #56	; 0x38
    3568:	ab1a      	add	r3, sp, #104	; 0x68
    356a:	9400      	str	r4, [sp, #0]
    356c:	f7ff ff7a 	bl	3464 <ECIES_kdf>
    3570:	9826      	ldr	r0, [sp, #152]	; 0x98
    3572:	a91a      	add	r1, sp, #104	; 0x68
    3574:	f7ff fc21 	bl	2dba <bitstr_export>
    3578:	9827      	ldr	r0, [sp, #156]	; 0x9c
    357a:	4621      	mov	r1, r4
    357c:	f7ff fc1d 	bl	2dba <bitstr_export>
    3580:	b021      	add	sp, #132	; 0x84
    3582:	bdf0      	pop	{r4, r5, r6, r7, pc}
    3584:	10000198 	.word	0x10000198
    3588:	100001f8 	.word	0x100001f8

0000358c <ECIES_decryptkeygen>:
    358c:	b5f0      	push	{r4, r5, r6, r7, lr}
    358e:	4607      	mov	r7, r0
    3590:	b0a1      	sub	sp, #132	; 0x84
    3592:	460d      	mov	r5, r1
    3594:	a81a      	add	r0, sp, #104	; 0x68
    3596:	4639      	mov	r1, r7
    3598:	4614      	mov	r4, r2
    359a:	461e      	mov	r6, r3
    359c:	f7ff fbff 	bl	2d9e <bitstr_import>
    35a0:	a814      	add	r0, sp, #80	; 0x50
    35a2:	4629      	mov	r1, r5
    35a4:	f7ff fbfb 	bl	2d9e <bitstr_import>
    35a8:	a81a      	add	r0, sp, #104	; 0x68
    35aa:	a914      	add	r1, sp, #80	; 0x50
    35ac:	f7ff fcea 	bl	2f84 <ECIES_embedded_public_key_validation>
    35b0:	2800      	cmp	r0, #0
    35b2:	db28      	blt.n	3606 <ECIES_decryptkeygen+0x7a>
    35b4:	9926      	ldr	r1, [sp, #152]	; 0x98
    35b6:	a802      	add	r0, sp, #8
    35b8:	f7ff feae 	bl	3318 <bitstr_parse>
    35bc:	a91a      	add	r1, sp, #104	; 0x68
    35be:	2218      	movs	r2, #24
    35c0:	a80e      	add	r0, sp, #56	; 0x38
    35c2:	f002 fa24 	bl	5a0e <memmove>
    35c6:	a914      	add	r1, sp, #80	; 0x50
    35c8:	2218      	movs	r2, #24
    35ca:	a808      	add	r0, sp, #32
    35cc:	f002 fa1f 	bl	5a0e <memmove>
    35d0:	a80e      	add	r0, sp, #56	; 0x38
    35d2:	a908      	add	r1, sp, #32
    35d4:	aa02      	add	r2, sp, #8
    35d6:	f7ff fdf6 	bl	31c6 <point_mult>
    35da:	a80e      	add	r0, sp, #56	; 0x38
    35dc:	a908      	add	r1, sp, #32
    35de:	f7ff fdb7 	bl	3150 <point_double>
    35e2:	a80e      	add	r0, sp, #56	; 0x38
    35e4:	f7ff fbbb 	bl	2d5e <bitstr_is_clear>
    35e8:	b118      	cbz	r0, 35f2 <ECIES_decryptkeygen+0x66>
    35ea:	a808      	add	r0, sp, #32
    35ec:	f7ff fbb7 	bl	2d5e <bitstr_is_clear>
    35f0:	b948      	cbnz	r0, 3606 <ECIES_decryptkeygen+0x7a>
    35f2:	ab14      	add	r3, sp, #80	; 0x50
    35f4:	9300      	str	r3, [sp, #0]
    35f6:	4620      	mov	r0, r4
    35f8:	4631      	mov	r1, r6
    35fa:	aa0e      	add	r2, sp, #56	; 0x38
    35fc:	ab1a      	add	r3, sp, #104	; 0x68
    35fe:	f7ff ff31 	bl	3464 <ECIES_kdf>
    3602:	2000      	movs	r0, #0
    3604:	e001      	b.n	360a <ECIES_decryptkeygen+0x7e>
    3606:	f04f 30ff 	mov.w	r0, #4294967295
    360a:	b021      	add	sp, #132	; 0x84
    360c:	bdf0      	pop	{r4, r5, r6, r7, pc}

0000360e <uint32touint8p>:
    360e:	460b      	mov	r3, r1
    3610:	0e02      	lsrs	r2, r0, #24
    3612:	f803 2b01 	strb.w	r2, [r3], #1
    3616:	0c02      	lsrs	r2, r0, #16
    3618:	704a      	strb	r2, [r1, #1]
    361a:	0a02      	lsrs	r2, r0, #8
    361c:	705a      	strb	r2, [r3, #1]
    361e:	7098      	strb	r0, [r3, #2]
    3620:	4770      	bx	lr

00003622 <uint8ptouint32>:
    3622:	7842      	ldrb	r2, [r0, #1]
    3624:	7801      	ldrb	r1, [r0, #0]
    3626:	1c43      	adds	r3, r0, #1
    3628:	ea42 2001 	orr.w	r0, r2, r1, lsl #8
    362c:	785a      	ldrb	r2, [r3, #1]
    362e:	789b      	ldrb	r3, [r3, #2]
    3630:	ea42 2000 	orr.w	r0, r2, r0, lsl #8
    3634:	ea43 2000 	orr.w	r0, r3, r0, lsl #8
    3638:	4770      	bx	lr
	...

0000363c <randomInit>:
    363c:	b570      	push	{r4, r5, r6, lr}
    363e:	2400      	movs	r4, #0
    3640:	e012      	b.n	3668 <randomInit+0x2c>
    3642:	2001      	movs	r0, #1
    3644:	f001 fe7c 	bl	5340 <adcRead>
    3648:	f005 031f 	and.w	r3, r5, #31
    364c:	f000 0001 	and.w	r0, r0, #1
    3650:	4098      	lsls	r0, r3
    3652:	3501      	adds	r5, #1
    3654:	f5b5 5f20 	cmp.w	r5, #10240	; 0x2800
    3658:	ea86 0600 	eor.w	r6, r6, r0
    365c:	d1f1      	bne.n	3642 <randomInit+0x6>
    365e:	4807      	ldr	r0, [pc, #28]	; (367c <randomInit+0x40>)
    3660:	5026      	str	r6, [r4, r0]
    3662:	3404      	adds	r4, #4
    3664:	2c20      	cmp	r4, #32
    3666:	d002      	beq.n	366e <randomInit+0x32>
    3668:	2600      	movs	r6, #0
    366a:	4635      	mov	r5, r6
    366c:	e7e9      	b.n	3642 <randomInit+0x6>
    366e:	4a04      	ldr	r2, [pc, #16]	; (3680 <randomInit+0x44>)
    3670:	2108      	movs	r1, #8
    3672:	e8bd 4070 	ldmia.w	sp!, {r4, r5, r6, lr}
    3676:	f7ff ba90 	b.w	2b9a <xxtea_encode_words>
    367a:	bf00      	nop
    367c:	10000738 	.word	0x10000738
    3680:	000061c4 	.word	0x000061c4

00003684 <getRandom>:
    3684:	b508      	push	{r3, lr}
    3686:	4804      	ldr	r0, [pc, #16]	; (3698 <getRandom+0x14>)
    3688:	2108      	movs	r1, #8
    368a:	4a04      	ldr	r2, [pc, #16]	; (369c <getRandom+0x18>)
    368c:	f7ff fa85 	bl	2b9a <xxtea_encode_words>
    3690:	4b01      	ldr	r3, [pc, #4]	; (3698 <getRandom+0x14>)
    3692:	6818      	ldr	r0, [r3, #0]
    3694:	bd08      	pop	{r3, pc}
    3696:	bf00      	nop
    3698:	10000738 	.word	0x10000738
    369c:	000061c4 	.word	0x000061c4

000036a0 <work_queue_minimal>:
    36a0:	b5f8      	push	{r3, r4, r5, r6, r7, lr}
    36a2:	4f18      	ldr	r7, [pc, #96]	; (3704 <work_queue_minimal+0x64>)
    36a4:	683b      	ldr	r3, [r7, #0]
    36a6:	687a      	ldr	r2, [r7, #4]
    36a8:	4293      	cmp	r3, r2
    36aa:	d026      	beq.n	36fa <work_queue_minimal+0x5a>
    36ac:	4c16      	ldr	r4, [pc, #88]	; (3708 <work_queue_minimal+0x68>)
    36ae:	3301      	adds	r3, #1
    36b0:	ea03 0404 	and.w	r4, r3, r4
    36b4:	2c00      	cmp	r4, #0
    36b6:	da03      	bge.n	36c0 <work_queue_minimal+0x20>
    36b8:	3c01      	subs	r4, #1
    36ba:	f064 0407 	orn	r4, r4, #7
    36be:	3401      	adds	r4, #1
    36c0:	1c63      	adds	r3, r4, #1
    36c2:	eb07 07c3 	add.w	r7, r7, r3, lsl #3
    36c6:	7938      	ldrb	r0, [r7, #4]
    36c8:	4d0e      	ldr	r5, [pc, #56]	; (3704 <work_queue_minimal+0x64>)
    36ca:	f010 0601 	ands.w	r6, r0, #1
    36ce:	d104      	bne.n	36da <work_queue_minimal+0x3a>
    36d0:	f855 3033 	ldr.w	r3, [r5, r3, lsl #3]
    36d4:	602c      	str	r4, [r5, #0]
    36d6:	4798      	blx	r3
    36d8:	e00d      	b.n	36f6 <work_queue_minimal+0x56>
    36da:	b186      	cbz	r6, 36fe <work_queue_minimal+0x5e>
    36dc:	0840      	lsrs	r0, r0, #1
    36de:	f855 3033 	ldr.w	r3, [r5, r3, lsl #3]
    36e2:	4798      	blx	r3
    36e4:	287f      	cmp	r0, #127	; 0x7f
    36e6:	d102      	bne.n	36ee <work_queue_minimal+0x4e>
    36e8:	602c      	str	r4, [r5, #0]
    36ea:	387f      	subs	r0, #127	; 0x7f
    36ec:	bdf8      	pop	{r3, r4, r5, r6, r7, pc}
    36ee:	793b      	ldrb	r3, [r7, #4]
    36f0:	f360 0347 	bfi	r3, r0, #1, #7
    36f4:	713b      	strb	r3, [r7, #4]
    36f6:	4630      	mov	r0, r6
    36f8:	bdf8      	pop	{r3, r4, r5, r6, r7, pc}
    36fa:	2000      	movs	r0, #0
    36fc:	bdf8      	pop	{r3, r4, r5, r6, r7, pc}
    36fe:	2000      	movs	r0, #0
    3700:	bdf8      	pop	{r3, r4, r5, r6, r7, pc}
    3702:	bf00      	nop
    3704:	10000758 	.word	0x10000758
    3708:	80000007 	.word	0x80000007

0000370c <work_queue>:
    370c:	b508      	push	{r3, lr}
    370e:	4b06      	ldr	r3, [pc, #24]	; (3728 <work_queue+0x1c>)
    3710:	681a      	ldr	r2, [r3, #0]
    3712:	685b      	ldr	r3, [r3, #4]
    3714:	429a      	cmp	r2, r3
    3716:	d101      	bne.n	371c <work_queue+0x10>
    3718:	bf30      	wfi
    371a:	bd08      	pop	{r3, pc}
    371c:	f7ff ffc0 	bl	36a0 <work_queue_minimal>
    3720:	2800      	cmp	r0, #0
    3722:	d1fb      	bne.n	371c <work_queue+0x10>
    3724:	bd08      	pop	{r3, pc}
    3726:	bf00      	nop
    3728:	10000758 	.word	0x10000758

0000372c <delayms_queue_plus>:
    372c:	b5f8      	push	{r3, r4, r5, r6, r7, lr}
    372e:	4b0f      	ldr	r3, [pc, #60]	; (376c <delayms_queue_plus+0x40>)
    3730:	270a      	movs	r7, #10
    3732:	681a      	ldr	r2, [r3, #0]
    3734:	fbb0 f7f7 	udiv	r7, r0, r7
    3738:	460d      	mov	r5, r1
    373a:	18bf      	adds	r7, r7, r2
    373c:	2400      	movs	r4, #0
    373e:	461e      	mov	r6, r3
    3740:	4b0b      	ldr	r3, [pc, #44]	; (3770 <delayms_queue_plus+0x44>)
    3742:	681a      	ldr	r2, [r3, #0]
    3744:	685b      	ldr	r3, [r3, #4]
    3746:	429a      	cmp	r2, r3
    3748:	d101      	bne.n	374e <delayms_queue_plus+0x22>
    374a:	bf30      	wfi
    374c:	e002      	b.n	3754 <delayms_queue_plus+0x28>
    374e:	f7ff ffa7 	bl	36a0 <work_queue_minimal>
    3752:	4604      	mov	r4, r0
    3754:	6833      	ldr	r3, [r6, #0]
    3756:	429f      	cmp	r7, r3
    3758:	d8f2      	bhi.n	3740 <delayms_queue_plus+0x14>
    375a:	b124      	cbz	r4, 3766 <delayms_queue_plus+0x3a>
    375c:	b11d      	cbz	r5, 3766 <delayms_queue_plus+0x3a>
    375e:	f7ff ff9f 	bl	36a0 <work_queue_minimal>
    3762:	2800      	cmp	r0, #0
    3764:	d1fb      	bne.n	375e <delayms_queue_plus+0x32>
    3766:	b2e0      	uxtb	r0, r4
    3768:	bdf8      	pop	{r3, r4, r5, r6, r7, pc}
    376a:	bf00      	nop
    376c:	100002ec 	.word	0x100002ec
    3770:	10000758 	.word	0x10000758

00003774 <delayms_queue>:
    3774:	4b0a      	ldr	r3, [pc, #40]	; (37a0 <delayms_queue+0x2c>)
    3776:	210a      	movs	r1, #10
    3778:	681a      	ldr	r2, [r3, #0]
    377a:	fbb0 f1f1 	udiv	r1, r0, r1
    377e:	b570      	push	{r4, r5, r6, lr}
    3780:	188e      	adds	r6, r1, r2
    3782:	461d      	mov	r5, r3
    3784:	4c07      	ldr	r4, [pc, #28]	; (37a4 <delayms_queue+0x30>)
    3786:	6822      	ldr	r2, [r4, #0]
    3788:	6863      	ldr	r3, [r4, #4]
    378a:	429a      	cmp	r2, r3
    378c:	d101      	bne.n	3792 <delayms_queue+0x1e>
    378e:	bf30      	wfi
    3790:	e001      	b.n	3796 <delayms_queue+0x22>
    3792:	f7ff ffbb 	bl	370c <work_queue>
    3796:	682b      	ldr	r3, [r5, #0]
    3798:	429e      	cmp	r6, r3
    379a:	d8f3      	bhi.n	3784 <delayms_queue+0x10>
    379c:	bd70      	pop	{r4, r5, r6, pc}
    379e:	bf00      	nop
    37a0:	100002ec 	.word	0x100002ec
    37a4:	10000758 	.word	0x10000758

000037a8 <push_queue>:
    37a8:	4a0f      	ldr	r2, [pc, #60]	; (37e8 <push_queue+0x40>)
    37aa:	4b10      	ldr	r3, [pc, #64]	; (37ec <push_queue+0x44>)
    37ac:	6851      	ldr	r1, [r2, #4]
    37ae:	3101      	adds	r1, #1
    37b0:	ea01 0303 	and.w	r3, r1, r3
    37b4:	2b00      	cmp	r3, #0
    37b6:	4611      	mov	r1, r2
    37b8:	da03      	bge.n	37c2 <push_queue+0x1a>
    37ba:	3b01      	subs	r3, #1
    37bc:	f063 0307 	orn	r3, r3, #7
    37c0:	3301      	adds	r3, #1
    37c2:	6809      	ldr	r1, [r1, #0]
    37c4:	4a08      	ldr	r2, [pc, #32]	; (37e8 <push_queue+0x40>)
    37c6:	428b      	cmp	r3, r1
    37c8:	d00b      	beq.n	37e2 <push_queue+0x3a>
    37ca:	1c59      	adds	r1, r3, #1
    37cc:	f842 0031 	str.w	r0, [r2, r1, lsl #3]
    37d0:	eb02 01c1 	add.w	r1, r2, r1, lsl #3
    37d4:	7908      	ldrb	r0, [r1, #4]
    37d6:	f36f 0000 	bfc	r0, #0, #1
    37da:	7108      	strb	r0, [r1, #4]
    37dc:	6053      	str	r3, [r2, #4]
    37de:	2000      	movs	r0, #0
    37e0:	4770      	bx	lr
    37e2:	f04f 30ff 	mov.w	r0, #4294967295
    37e6:	4770      	bx	lr
    37e8:	10000758 	.word	0x10000758
    37ec:	80000007 	.word	0x80000007

000037f0 <saveConfig>:
    37f0:	b510      	push	{r4, lr}
    37f2:	b08a      	sub	sp, #40	; 0x28
    37f4:	4668      	mov	r0, sp
    37f6:	4910      	ldr	r1, [pc, #64]	; (3838 <saveConfig+0x48>)
    37f8:	2212      	movs	r2, #18
    37fa:	f7fd fe57 	bl	14ac <f_open>
    37fe:	b9b8      	cbnz	r0, 3830 <saveConfig+0x40>
    3800:	4604      	mov	r4, r0
    3802:	e008      	b.n	3816 <saveConfig+0x26>
    3804:	1859      	adds	r1, r3, r1
    3806:	4668      	mov	r0, sp
    3808:	3104      	adds	r1, #4
    380a:	2201      	movs	r2, #1
    380c:	ab09      	add	r3, sp, #36	; 0x24
    380e:	f7fd ffdc 	bl	17ca <f_write>
    3812:	b968      	cbnz	r0, 3830 <saveConfig+0x40>
    3814:	3401      	adds	r4, #1
    3816:	4b09      	ldr	r3, [pc, #36]	; (383c <saveConfig+0x4c>)
    3818:	00e1      	lsls	r1, r4, #3
    381a:	f853 2034 	ldr.w	r2, [r3, r4, lsl #3]
    381e:	2a00      	cmp	r2, #0
    3820:	d1f0      	bne.n	3804 <saveConfig+0x14>
    3822:	4668      	mov	r0, sp
    3824:	f7fe f900 	bl	1a28 <f_close>
    3828:	3800      	subs	r0, #0
    382a:	bf18      	it	ne
    382c:	2001      	movne	r0, #1
    382e:	e000      	b.n	3832 <saveConfig+0x42>
    3830:	2001      	movs	r0, #1
    3832:	b00a      	add	sp, #40	; 0x28
    3834:	bd10      	pop	{r4, pc}
    3836:	bf00      	nop
    3838:	000061d4 	.word	0x000061d4
    383c:	10000210 	.word	0x10000210

00003840 <enableConfig>:
    3840:	b530      	push	{r4, r5, lr}
    3842:	2300      	movs	r3, #0
    3844:	e00d      	b.n	3862 <enableConfig+0x22>
    3846:	1952      	adds	r2, r2, r5
    3848:	79d4      	ldrb	r4, [r2, #7]
    384a:	f3c4 0542 	ubfx	r5, r4, #1, #3
    384e:	4285      	cmp	r5, r0
    3850:	d106      	bne.n	3860 <enableConfig+0x20>
    3852:	f1d1 0501 	rsbs	r5, r1, #1
    3856:	bf38      	it	cc
    3858:	2500      	movcc	r5, #0
    385a:	f365 0400 	bfi	r4, r5, #0, #1
    385e:	71d4      	strb	r4, [r2, #7]
    3860:	3301      	adds	r3, #1
    3862:	4a03      	ldr	r2, [pc, #12]	; (3870 <enableConfig+0x30>)
    3864:	00dd      	lsls	r5, r3, #3
    3866:	f852 4033 	ldr.w	r4, [r2, r3, lsl #3]
    386a:	2c00      	cmp	r4, #0
    386c:	d1eb      	bne.n	3846 <enableConfig+0x6>
    386e:	bd30      	pop	{r4, r5, pc}
    3870:	10000210 	.word	0x10000210

00003874 <applyConfig>:
    3874:	b510      	push	{r4, lr}
    3876:	4c0b      	ldr	r4, [pc, #44]	; (38a4 <applyConfig+0x30>)
    3878:	f894 0044 	ldrb.w	r0, [r4, #68]	; 0x44
    387c:	b108      	cbz	r0, 3882 <applyConfig+0xe>
    387e:	f000 fc47 	bl	4110 <lcdSetContrast>
    3882:	f894 3054 	ldrb.w	r3, [r4, #84]	; 0x54
    3886:	b11b      	cbz	r3, 3890 <applyConfig+0x1c>
    3888:	2001      	movs	r0, #1
    388a:	4601      	mov	r1, r0
    388c:	f7ff ffd8 	bl	3840 <enableConfig>
    3890:	f7fe ffa4 	bl	27dc <isNight>
    3894:	b128      	cbz	r0, 38a2 <applyConfig+0x2e>
    3896:	f894 002c 	ldrb.w	r0, [r4, #44]	; 0x2c
    389a:	e8bd 4010 	ldmia.w	sp!, {r4, lr}
    389e:	f7fe bdc9 	b.w	2434 <backlightSetBrightness>
    38a2:	bd10      	pop	{r4, pc}
    38a4:	10000210 	.word	0x10000210

000038a8 <readConfig>:
    38a8:	b530      	push	{r4, r5, lr}
    38aa:	b08b      	sub	sp, #44	; 0x2c
    38ac:	4668      	mov	r0, sp
    38ae:	4914      	ldr	r1, [pc, #80]	; (3900 <readConfig+0x58>)
    38b0:	2201      	movs	r2, #1
    38b2:	f7fd fdfb 	bl	14ac <f_open>
    38b6:	b9f8      	cbnz	r0, 38f8 <readConfig+0x50>
    38b8:	4605      	mov	r5, r0
    38ba:	e00e      	b.n	38da <readConfig+0x32>
    38bc:	1861      	adds	r1, r4, r1
    38be:	3104      	adds	r1, #4
    38c0:	2201      	movs	r2, #1
    38c2:	ab09      	add	r3, sp, #36	; 0x24
    38c4:	4668      	mov	r0, sp
    38c6:	f7fd fed4 	bl	1672 <f_read>
    38ca:	7923      	ldrb	r3, [r4, #4]
    38cc:	2b03      	cmp	r3, #3
    38ce:	d002      	beq.n	38d6 <readConfig+0x2e>
    38d0:	2303      	movs	r3, #3
    38d2:	7123      	strb	r3, [r4, #4]
    38d4:	e010      	b.n	38f8 <readConfig+0x50>
    38d6:	b978      	cbnz	r0, 38f8 <readConfig+0x50>
    38d8:	3501      	adds	r5, #1
    38da:	4c0a      	ldr	r4, [pc, #40]	; (3904 <readConfig+0x5c>)
    38dc:	00e9      	lsls	r1, r5, #3
    38de:	f854 3035 	ldr.w	r3, [r4, r5, lsl #3]
    38e2:	2b00      	cmp	r3, #0
    38e4:	d1ea      	bne.n	38bc <readConfig+0x14>
    38e6:	4668      	mov	r0, sp
    38e8:	f7fe f89e 	bl	1a28 <f_close>
    38ec:	4604      	mov	r4, r0
    38ee:	b918      	cbnz	r0, 38f8 <readConfig+0x50>
    38f0:	f7ff ffc0 	bl	3874 <applyConfig>
    38f4:	4620      	mov	r0, r4
    38f6:	e000      	b.n	38fa <readConfig+0x52>
    38f8:	2001      	movs	r0, #1
    38fa:	b00b      	add	sp, #44	; 0x2c
    38fc:	bd30      	pop	{r4, r5, pc}
    38fe:	bf00      	nop
    3900:	000061d4 	.word	0x000061d4
    3904:	10000210 	.word	0x10000210

00003908 <IntToStr>:
    3908:	b5f0      	push	{r4, r5, r6, r7, lr}
    390a:	4c2c      	ldr	r4, [pc, #176]	; (39bc <IntToStr+0xb4>)
    390c:	2300      	movs	r3, #0
    390e:	f012 0610 	ands.w	r6, r2, #16
    3912:	72e3      	strb	r3, [r4, #11]
    3914:	d012      	beq.n	393c <IntToStr+0x34>
    3916:	330a      	adds	r3, #10
    3918:	e00a      	b.n	3930 <IntToStr+0x28>
    391a:	f000 020f 	and.w	r2, r0, #15
    391e:	3230      	adds	r2, #48	; 0x30
    3920:	2a39      	cmp	r2, #57	; 0x39
    3922:	54e2      	strb	r2, [r4, r3]
    3924:	d902      	bls.n	392c <IntToStr+0x24>
    3926:	4d25      	ldr	r5, [pc, #148]	; (39bc <IntToStr+0xb4>)
    3928:	3207      	adds	r2, #7
    392a:	54ea      	strb	r2, [r5, r3]
    392c:	0900      	lsrs	r0, r0, #4
    392e:	3b01      	subs	r3, #1
    3930:	f1c1 020b 	rsb	r2, r1, #11
    3934:	4293      	cmp	r3, r2
    3936:	d2f0      	bcs.n	391a <IntToStr+0x12>
    3938:	3301      	adds	r3, #1
    393a:	e03d      	b.n	39b8 <IntToStr+0xb0>
    393c:	2800      	cmp	r0, #0
    393e:	da01      	bge.n	3944 <IntToStr+0x3c>
    3940:	4240      	negs	r0, r0
    3942:	2601      	movs	r6, #1
    3944:	250a      	movs	r5, #10
    3946:	e008      	b.n	395a <IntToStr+0x52>
    3948:	270a      	movs	r7, #10
    394a:	fb90 f3f7 	sdiv	r3, r0, r7
    394e:	fb07 0013 	mls	r0, r7, r3, r0
    3952:	3030      	adds	r0, #48	; 0x30
    3954:	5560      	strb	r0, [r4, r5]
    3956:	4618      	mov	r0, r3
    3958:	3d01      	subs	r5, #1
    395a:	f1c1 030b 	rsb	r3, r1, #11
    395e:	429d      	cmp	r5, r3
    3960:	d2f2      	bcs.n	3948 <IntToStr+0x40>
    3962:	1c6b      	adds	r3, r5, #1
    3964:	f012 0f02 	tst.w	r2, #2
    3968:	d107      	bne.n	397a <IntToStr+0x72>
    396a:	e000      	b.n	396e <IntToStr+0x66>
    396c:	3301      	adds	r3, #1
    396e:	5ce1      	ldrb	r1, [r4, r3]
    3970:	2930      	cmp	r1, #48	; 0x30
    3972:	d110      	bne.n	3996 <IntToStr+0x8e>
    3974:	2b09      	cmp	r3, #9
    3976:	ddf9      	ble.n	396c <IntToStr+0x64>
    3978:	e00d      	b.n	3996 <IntToStr+0x8e>
    397a:	f012 0f01 	tst.w	r2, #1
    397e:	d10a      	bne.n	3996 <IntToStr+0x8e>
    3980:	e002      	b.n	3988 <IntToStr+0x80>
    3982:	490e      	ldr	r1, [pc, #56]	; (39bc <IntToStr+0xb4>)
    3984:	2020      	movs	r0, #32
    3986:	5548      	strb	r0, [r1, r5]
    3988:	1961      	adds	r1, r4, r5
    398a:	7849      	ldrb	r1, [r1, #1]
    398c:	2930      	cmp	r1, #48	; 0x30
    398e:	d102      	bne.n	3996 <IntToStr+0x8e>
    3990:	3501      	adds	r5, #1
    3992:	2d09      	cmp	r5, #9
    3994:	ddf5      	ble.n	3982 <IntToStr+0x7a>
    3996:	2e01      	cmp	r6, #1
    3998:	d102      	bne.n	39a0 <IntToStr+0x98>
    399a:	3b01      	subs	r3, #1
    399c:	222d      	movs	r2, #45	; 0x2d
    399e:	e00a      	b.n	39b6 <IntToStr+0xae>
    39a0:	f012 0f04 	tst.w	r2, #4
    39a4:	d002      	beq.n	39ac <IntToStr+0xa4>
    39a6:	3b01      	subs	r3, #1
    39a8:	222b      	movs	r2, #43	; 0x2b
    39aa:	e004      	b.n	39b6 <IntToStr+0xae>
    39ac:	f012 0f08 	tst.w	r2, #8
    39b0:	d002      	beq.n	39b8 <IntToStr+0xb0>
    39b2:	3b01      	subs	r3, #1
    39b4:	2220      	movs	r2, #32
    39b6:	54e2      	strb	r2, [r4, r3]
    39b8:	18e0      	adds	r0, r4, r3
    39ba:	bdf0      	pop	{r4, r5, r6, r7, pc}
    39bc:	100002f0 	.word	0x100002f0

000039c0 <IntToStrX>:
    39c0:	2210      	movs	r2, #16
    39c2:	f7ff bfa1 	b.w	3908 <IntToStr>
	...

000039c8 <input>:
    39c8:	e92d 43f7 	stmdb	sp!, {r0, r1, r2, r4, r5, r6, r7, r8, r9, lr}
    39cc:	f89d 7028 	ldrb.w	r7, [sp, #40]	; 0x28
    39d0:	4c68      	ldr	r4, [pc, #416]	; (3b74 <input+0x1ac>)
    39d2:	460d      	mov	r5, r1
    39d4:	4606      	mov	r6, r0
    39d6:	4690      	mov	r8, r2
    39d8:	4699      	mov	r9, r3
    39da:	f001 f965 	bl	4ca8 <setSystemFont>
    39de:	2300      	movs	r3, #0
    39e0:	19ea      	adds	r2, r5, r7
    39e2:	6066      	str	r6, [r4, #4]
    39e4:	6025      	str	r5, [r4, #0]
    39e6:	72a7      	strb	r7, [r4, #10]
    39e8:	f884 800b 	strb.w	r8, [r4, #11]
    39ec:	f884 900c 	strb.w	r9, [r4, #12]
    39f0:	7223      	strb	r3, [r4, #8]
    39f2:	7263      	strb	r3, [r4, #9]
    39f4:	7363      	strb	r3, [r4, #13]
    39f6:	4628      	mov	r0, r5
    39f8:	f802 3c01 	strb.w	r3, [r2, #-1]
    39fc:	f002 f82f 	bl	5a5e <strlen>
    3a00:	e002      	b.n	3a08 <input+0x40>
    3a02:	2300      	movs	r3, #0
    3a04:	542b      	strb	r3, [r5, r0]
    3a06:	3001      	adds	r0, #1
    3a08:	1e7b      	subs	r3, r7, #1
    3a0a:	4298      	cmp	r0, r3
    3a0c:	dbf9      	blt.n	3a02 <input+0x3a>
    3a0e:	e094      	b.n	3b3a <input+0x172>
    3a10:	f88d 5004 	strb.w	r5, [sp, #4]
    3a14:	f88d 5005 	strb.w	r5, [sp, #5]
    3a18:	f001 f92a 	bl	4c70 <lcdClear>
    3a1c:	6872      	ldr	r2, [r6, #4]
    3a1e:	4628      	mov	r0, r5
    3a20:	4629      	mov	r1, r5
    3a22:	f000 ff65 	bl	48f0 <DoString>
    3a26:	462e      	mov	r6, r5
    3a28:	e00d      	b.n	3a46 <input+0x7e>
    3a2a:	4a52      	ldr	r2, [pc, #328]	; (3b74 <input+0x1ac>)
    3a2c:	4628      	mov	r0, r5
    3a2e:	6812      	ldr	r2, [r2, #0]
    3a30:	211e      	movs	r1, #30
    3a32:	5cd3      	ldrb	r3, [r2, r3]
    3a34:	aa02      	add	r2, sp, #8
    3a36:	f802 3d04 	strb.w	r3, [r2, #-4]!
    3a3a:	3601      	adds	r6, #1
    3a3c:	f000 ff58 	bl	48f0 <DoString>
    3a40:	350c      	adds	r5, #12
    3a42:	2e09      	cmp	r6, #9
    3a44:	d004      	beq.n	3a50 <input+0x88>
    3a46:	7a23      	ldrb	r3, [r4, #8]
    3a48:	7aa2      	ldrb	r2, [r4, #10]
    3a4a:	18f3      	adds	r3, r6, r3
    3a4c:	4293      	cmp	r3, r2
    3a4e:	dbec      	blt.n	3a2a <input+0x62>
    3a50:	7a63      	ldrb	r3, [r4, #9]
    3a52:	200c      	movs	r0, #12
    3a54:	4358      	muls	r0, r3
    3a56:	2128      	movs	r1, #40	; 0x28
    3a58:	4a47      	ldr	r2, [pc, #284]	; (3b78 <input+0x1b0>)
    3a5a:	f000 ff49 	bl	48f0 <DoString>
    3a5e:	213c      	movs	r1, #60	; 0x3c
    3a60:	4a46      	ldr	r2, [pc, #280]	; (3b7c <input+0x1b4>)
    3a62:	2000      	movs	r0, #0
    3a64:	f000 ff44 	bl	48f0 <DoString>
    3a68:	7a63      	ldrb	r3, [r4, #9]
    3a6a:	7a22      	ldrb	r2, [r4, #8]
    3a6c:	213c      	movs	r1, #60	; 0x3c
    3a6e:	18d2      	adds	r2, r2, r3
    3a70:	3201      	adds	r2, #1
    3a72:	f000 ff6d 	bl	4950 <DoInt>
    3a76:	213c      	movs	r1, #60	; 0x3c
    3a78:	4a41      	ldr	r2, [pc, #260]	; (3b80 <input+0x1b8>)
    3a7a:	f000 ff39 	bl	48f0 <DoString>
    3a7e:	213c      	movs	r1, #60	; 0x3c
    3a80:	7aa2      	ldrb	r2, [r4, #10]
    3a82:	f000 ff65 	bl	4950 <DoInt>
    3a86:	213c      	movs	r1, #60	; 0x3c
    3a88:	4a3e      	ldr	r2, [pc, #248]	; (3b84 <input+0x1bc>)
    3a8a:	f000 ff31 	bl	48f0 <DoString>
    3a8e:	f000 fad5 	bl	403c <lcdDisplay>
    3a92:	7a65      	ldrb	r5, [r4, #9]
    3a94:	7a23      	ldrb	r3, [r4, #8]
    3a96:	6826      	ldr	r6, [r4, #0]
    3a98:	18ed      	adds	r5, r5, r3
    3a9a:	f7fe ff07 	bl	28ac <getInputWaitRepeat>
    3a9e:	3801      	subs	r0, #1
    3aa0:	280f      	cmp	r0, #15
    3aa2:	d84a      	bhi.n	3b3a <input+0x172>
    3aa4:	e8df f000 	tbb	[pc, r0]
    3aa8:	08493c32 	.word	0x08493c32
    3aac:	14494949 	.word	0x14494949
    3ab0:	49494949 	.word	0x49494949
    3ab4:	47494949 	.word	0x47494949
    3ab8:	7a62      	ldrb	r2, [r4, #9]
    3aba:	4b2e      	ldr	r3, [pc, #184]	; (3b74 <input+0x1ac>)
    3abc:	b112      	cbz	r2, 3ac4 <input+0xfc>
    3abe:	3a01      	subs	r2, #1
    3ac0:	725a      	strb	r2, [r3, #9]
    3ac2:	e03a      	b.n	3b3a <input+0x172>
    3ac4:	7a1a      	ldrb	r2, [r3, #8]
    3ac6:	2a00      	cmp	r2, #0
    3ac8:	d037      	beq.n	3b3a <input+0x172>
    3aca:	3a01      	subs	r2, #1
    3acc:	721a      	strb	r2, [r3, #8]
    3ace:	e034      	b.n	3b3a <input+0x172>
    3ad0:	7a62      	ldrb	r2, [r4, #9]
    3ad2:	4b28      	ldr	r3, [pc, #160]	; (3b74 <input+0x1ac>)
    3ad4:	2a06      	cmp	r2, #6
    3ad6:	d80c      	bhi.n	3af2 <input+0x12a>
    3ad8:	7a19      	ldrb	r1, [r3, #8]
    3ada:	7a9b      	ldrb	r3, [r3, #10]
    3adc:	1852      	adds	r2, r2, r1
    3ade:	429a      	cmp	r2, r3
    3ae0:	da07      	bge.n	3af2 <input+0x12a>
    3ae2:	5d73      	ldrb	r3, [r6, r5]
    3ae4:	b90b      	cbnz	r3, 3aea <input+0x122>
    3ae6:	3320      	adds	r3, #32
    3ae8:	5573      	strb	r3, [r6, r5]
    3aea:	7a63      	ldrb	r3, [r4, #9]
    3aec:	3301      	adds	r3, #1
    3aee:	7263      	strb	r3, [r4, #9]
    3af0:	e023      	b.n	3b3a <input+0x172>
    3af2:	7a23      	ldrb	r3, [r4, #8]
    3af4:	7aa2      	ldrb	r2, [r4, #10]
    3af6:	f103 0108 	add.w	r1, r3, #8
    3afa:	4291      	cmp	r1, r2
    3afc:	da1d      	bge.n	3b3a <input+0x172>
    3afe:	4a1d      	ldr	r2, [pc, #116]	; (3b74 <input+0x1ac>)
    3b00:	3301      	adds	r3, #1
    3b02:	7213      	strb	r3, [r2, #8]
    3b04:	5d73      	ldrb	r3, [r6, r5]
    3b06:	b9c3      	cbnz	r3, 3b3a <input+0x172>
    3b08:	3320      	adds	r3, #32
    3b0a:	e007      	b.n	3b1c <input+0x154>
    3b0c:	7ae2      	ldrb	r2, [r4, #11]
    3b0e:	5d73      	ldrb	r3, [r6, r5]
    3b10:	429a      	cmp	r2, r3
    3b12:	7b22      	ldrb	r2, [r4, #12]
    3b14:	d20b      	bcs.n	3b2e <input+0x166>
    3b16:	4293      	cmp	r3, r2
    3b18:	d809      	bhi.n	3b2e <input+0x166>
    3b1a:	3b01      	subs	r3, #1
    3b1c:	5573      	strb	r3, [r6, r5]
    3b1e:	e00c      	b.n	3b3a <input+0x172>
    3b20:	7b22      	ldrb	r2, [r4, #12]
    3b22:	5d73      	ldrb	r3, [r6, r5]
    3b24:	429a      	cmp	r2, r3
    3b26:	7ae2      	ldrb	r2, [r4, #11]
    3b28:	d901      	bls.n	3b2e <input+0x166>
    3b2a:	4293      	cmp	r3, r2
    3b2c:	d201      	bcs.n	3b32 <input+0x16a>
    3b2e:	5572      	strb	r2, [r6, r5]
    3b30:	e003      	b.n	3b3a <input+0x172>
    3b32:	3301      	adds	r3, #1
    3b34:	e7f2      	b.n	3b1c <input+0x154>
    3b36:	2301      	movs	r3, #1
    3b38:	7363      	strb	r3, [r4, #13]
    3b3a:	7b65      	ldrb	r5, [r4, #13]
    3b3c:	4e0d      	ldr	r6, [pc, #52]	; (3b74 <input+0x1ac>)
    3b3e:	2d00      	cmp	r5, #0
    3b40:	f43f af66 	beq.w	3a10 <input+0x48>
    3b44:	7ab1      	ldrb	r1, [r6, #10]
    3b46:	6832      	ldr	r2, [r6, #0]
    3b48:	2300      	movs	r3, #0
    3b4a:	5cd0      	ldrb	r0, [r2, r3]
    3b4c:	b960      	cbnz	r0, 3b68 <input+0x1a0>
    3b4e:	e001      	b.n	3b54 <input+0x18c>
    3b50:	2200      	movs	r2, #0
    3b52:	700a      	strb	r2, [r1, #0]
    3b54:	6822      	ldr	r2, [r4, #0]
    3b56:	3b01      	subs	r3, #1
    3b58:	18d1      	adds	r1, r2, r3
    3b5a:	5cd2      	ldrb	r2, [r2, r3]
    3b5c:	2a20      	cmp	r2, #32
    3b5e:	d106      	bne.n	3b6e <input+0x1a6>
    3b60:	f1b3 3fff 	cmp.w	r3, #4294967295
    3b64:	d1f4      	bne.n	3b50 <input+0x188>
    3b66:	e002      	b.n	3b6e <input+0x1a6>
    3b68:	3301      	adds	r3, #1
    3b6a:	428b      	cmp	r3, r1
    3b6c:	dded      	ble.n	3b4a <input+0x182>
    3b6e:	e8bd 83fe 	ldmia.w	sp!, {r1, r2, r3, r4, r5, r6, r7, r8, r9, pc}
    3b72:	bf00      	nop
    3b74:	100007bc 	.word	0x100007bc
    3b78:	0000629b 	.word	0x0000629b
    3b7c:	0000629d 	.word	0x0000629d
    3b80:	0000629f 	.word	0x0000629f
    3b84:	000062a1 	.word	0x000062a1

00003b88 <days_per_month>:
    3b88:	2901      	cmp	r1, #1
    3b8a:	d113      	bne.n	3bb4 <days_per_month+0x2c>
    3b8c:	f010 0f03 	tst.w	r0, #3
    3b90:	d11a      	bne.n	3bc8 <days_per_month+0x40>
    3b92:	2364      	movs	r3, #100	; 0x64
    3b94:	fb90 f2f3 	sdiv	r2, r0, r3
    3b98:	fb03 0312 	mls	r3, r3, r2, r0
    3b9c:	b9b3      	cbnz	r3, 3bcc <days_per_month+0x44>
    3b9e:	f44f 73c8 	mov.w	r3, #400	; 0x190
    3ba2:	fb90 f1f3 	sdiv	r1, r0, r3
    3ba6:	fb03 0011 	mls	r0, r3, r1, r0
    3baa:	2800      	cmp	r0, #0
    3bac:	bf0c      	ite	eq
    3bae:	201d      	moveq	r0, #29
    3bb0:	201c      	movne	r0, #28
    3bb2:	4770      	bx	lr
    3bb4:	2906      	cmp	r1, #6
    3bb6:	bfc8      	it	gt
    3bb8:	3901      	subgt	r1, #1
    3bba:	f001 0101 	and.w	r1, r1, #1
    3bbe:	2900      	cmp	r1, #0
    3bc0:	bf0c      	ite	eq
    3bc2:	201f      	moveq	r0, #31
    3bc4:	201e      	movne	r0, #30
    3bc6:	4770      	bx	lr
    3bc8:	201c      	movs	r0, #28
    3bca:	4770      	bx	lr
    3bcc:	201d      	movs	r0, #29
    3bce:	4770      	bx	lr

00003bd0 <mygmtime>:
    3bd0:	b5f8      	push	{r3, r4, r5, r6, r7, lr}
    3bd2:	4b38      	ldr	r3, [pc, #224]	; (3cb4 <mygmtime+0xe4>)
    3bd4:	4e38      	ldr	r6, [pc, #224]	; (3cb8 <mygmtime+0xe8>)
    3bd6:	fbb0 f5f3 	udiv	r5, r0, r3
    3bda:	fb03 0015 	mls	r0, r3, r5, r0
    3bde:	233c      	movs	r3, #60	; 0x3c
    3be0:	fbb0 f2f3 	udiv	r2, r0, r3
    3be4:	fb03 0212 	mls	r2, r3, r2, r0
    3be8:	f44f 6161 	mov.w	r1, #3600	; 0xe10
    3bec:	6032      	str	r2, [r6, #0]
    3bee:	fbb0 f2f1 	udiv	r2, r0, r1
    3bf2:	fb01 0012 	mls	r0, r1, r2, r0
    3bf6:	fbb0 f3f3 	udiv	r3, r0, r3
    3bfa:	6073      	str	r3, [r6, #4]
    3bfc:	60b2      	str	r2, [r6, #8]
    3bfe:	1d2b      	adds	r3, r5, #4
    3c00:	2207      	movs	r2, #7
    3c02:	fbb3 f2f2 	udiv	r2, r3, r2
    3c06:	00d1      	lsls	r1, r2, #3
    3c08:	1a8a      	subs	r2, r1, r2
    3c0a:	1a9b      	subs	r3, r3, r2
    3c0c:	61b3      	str	r3, [r6, #24]
    3c0e:	f240 74b2 	movw	r4, #1970	; 0x7b2
    3c12:	e01b      	b.n	3c4c <mygmtime+0x7c>
    3c14:	b99a      	cbnz	r2, 3c3e <mygmtime+0x6e>
    3c16:	2364      	movs	r3, #100	; 0x64
    3c18:	fb94 f2f3 	sdiv	r2, r4, r3
    3c1c:	fb03 4312 	mls	r3, r3, r2, r4
    3c20:	b983      	cbnz	r3, 3c44 <mygmtime+0x74>
    3c22:	f44f 73c8 	mov.w	r3, #400	; 0x190
    3c26:	fb94 f2f3 	sdiv	r2, r4, r3
    3c2a:	fb03 4312 	mls	r3, r3, r2, r4
    3c2e:	f240 126d 	movw	r2, #365	; 0x16d
    3c32:	2b00      	cmp	r3, #0
    3c34:	bf14      	ite	ne
    3c36:	4613      	movne	r3, r2
    3c38:	f44f 73b7 	moveq.w	r3, #366	; 0x16e
    3c3c:	e004      	b.n	3c48 <mygmtime+0x78>
    3c3e:	f240 136d 	movw	r3, #365	; 0x16d
    3c42:	e001      	b.n	3c48 <mygmtime+0x78>
    3c44:	f44f 73b7 	mov.w	r3, #366	; 0x16e
    3c48:	1aed      	subs	r5, r5, r3
    3c4a:	3401      	adds	r4, #1
    3c4c:	f014 0203 	ands.w	r2, r4, #3
    3c50:	d113      	bne.n	3c7a <mygmtime+0xaa>
    3c52:	2364      	movs	r3, #100	; 0x64
    3c54:	fb94 f1f3 	sdiv	r1, r4, r3
    3c58:	fb03 4311 	mls	r3, r3, r1, r4
    3c5c:	b983      	cbnz	r3, 3c80 <mygmtime+0xb0>
    3c5e:	f44f 73c8 	mov.w	r3, #400	; 0x190
    3c62:	fb94 f1f3 	sdiv	r1, r4, r3
    3c66:	fb03 4311 	mls	r3, r3, r1, r4
    3c6a:	f240 116d 	movw	r1, #365	; 0x16d
    3c6e:	2b00      	cmp	r3, #0
    3c70:	bf14      	ite	ne
    3c72:	460b      	movne	r3, r1
    3c74:	f44f 73b7 	moveq.w	r3, #366	; 0x16e
    3c78:	e004      	b.n	3c84 <mygmtime+0xb4>
    3c7a:	f240 136d 	movw	r3, #365	; 0x16d
    3c7e:	e001      	b.n	3c84 <mygmtime+0xb4>
    3c80:	f44f 73b7 	mov.w	r3, #366	; 0x16e
    3c84:	429d      	cmp	r5, r3
    3c86:	d2c5      	bcs.n	3c14 <mygmtime+0x44>
    3c88:	f5a4 63ec 	sub.w	r3, r4, #1888	; 0x760
    3c8c:	3b0c      	subs	r3, #12
    3c8e:	6173      	str	r3, [r6, #20]
    3c90:	61f5      	str	r5, [r6, #28]
    3c92:	2700      	movs	r7, #0
    3c94:	e001      	b.n	3c9a <mygmtime+0xca>
    3c96:	1a2d      	subs	r5, r5, r0
    3c98:	3701      	adds	r7, #1
    3c9a:	4620      	mov	r0, r4
    3c9c:	4639      	mov	r1, r7
    3c9e:	f7ff ff73 	bl	3b88 <days_per_month>
    3ca2:	4285      	cmp	r5, r0
    3ca4:	d2f7      	bcs.n	3c96 <mygmtime+0xc6>
    3ca6:	3501      	adds	r5, #1
    3ca8:	2300      	movs	r3, #0
    3caa:	6137      	str	r7, [r6, #16]
    3cac:	60f5      	str	r5, [r6, #12]
    3cae:	6233      	str	r3, [r6, #32]
    3cb0:	4801      	ldr	r0, [pc, #4]	; (3cb8 <mygmtime+0xe8>)
    3cb2:	bdf8      	pop	{r3, r4, r5, r6, r7, pc}
    3cb4:	00015180 	.word	0x00015180
    3cb8:	100002fc 	.word	0x100002fc

00003cbc <getSeconds>:
    3cbc:	4b05      	ldr	r3, [pc, #20]	; (3cd4 <getSeconds+0x18>)
    3cbe:	200a      	movs	r0, #10
    3cc0:	681b      	ldr	r3, [r3, #0]
    3cc2:	4358      	muls	r0, r3
    3cc4:	f44f 737a 	mov.w	r3, #1000	; 0x3e8
    3cc8:	fbb0 f0f3 	udiv	r0, r0, r3
    3ccc:	4b02      	ldr	r3, [pc, #8]	; (3cd8 <getSeconds+0x1c>)
    3cce:	681b      	ldr	r3, [r3, #0]
    3cd0:	18c0      	adds	r0, r0, r3
    3cd2:	4770      	bx	lr
    3cd4:	100002ec 	.word	0x100002ec
    3cd8:	10000328 	.word	0x10000328

00003cdc <lcdWrite>:
    3cdc:	ea41 2100 	orr.w	r1, r1, r0, lsl #8
    3ce0:	4b08      	ldr	r3, [pc, #32]	; (3d04 <lcdWrite+0x28>)
    3ce2:	681b      	ldr	r3, [r3, #0]
    3ce4:	f003 0312 	and.w	r3, r3, #18
    3ce8:	2b02      	cmp	r3, #2
    3cea:	d1f9      	bne.n	3ce0 <lcdWrite+0x4>
    3cec:	4b06      	ldr	r3, [pc, #24]	; (3d08 <lcdWrite+0x2c>)
    3cee:	6019      	str	r1, [r3, #0]
    3cf0:	4b04      	ldr	r3, [pc, #16]	; (3d04 <lcdWrite+0x28>)
    3cf2:	681b      	ldr	r3, [r3, #0]
    3cf4:	f003 0314 	and.w	r3, r3, #20
    3cf8:	2b04      	cmp	r3, #4
    3cfa:	d1f9      	bne.n	3cf0 <lcdWrite+0x14>
    3cfc:	4b02      	ldr	r3, [pc, #8]	; (3d08 <lcdWrite+0x2c>)
    3cfe:	681b      	ldr	r3, [r3, #0]
    3d00:	4770      	bx	lr
    3d02:	bf00      	nop
    3d04:	4004000c 	.word	0x4004000c
    3d08:	40040008 	.word	0x40040008

00003d0c <_helper_pixel8>:
    3d0c:	4601      	mov	r1, r0
    3d0e:	2001      	movs	r0, #1
    3d10:	f7ff bfe4 	b.w	3cdc <lcdWrite>

00003d14 <lcd_select>:
    3d14:	4b08      	ldr	r3, [pc, #32]	; (3d38 <lcd_select+0x24>)
    3d16:	781b      	ldrb	r3, [r3, #0]
    3d18:	b12b      	cbz	r3, 3d26 <lcd_select+0x12>
    3d1a:	4b08      	ldr	r3, [pc, #32]	; (3d3c <lcd_select+0x28>)
    3d1c:	4a08      	ldr	r2, [pc, #32]	; (3d40 <lcd_select+0x2c>)
    3d1e:	6819      	ldr	r1, [r3, #0]
    3d20:	6011      	str	r1, [r2, #0]
    3d22:	2200      	movs	r2, #0
    3d24:	601a      	str	r2, [r3, #0]
    3d26:	4b07      	ldr	r3, [pc, #28]	; (3d44 <lcd_select+0x30>)
    3d28:	f640 0208 	movw	r2, #2056	; 0x808
    3d2c:	601a      	str	r2, [r3, #0]
    3d2e:	2002      	movs	r0, #2
    3d30:	2101      	movs	r1, #1
    3d32:	2200      	movs	r2, #0
    3d34:	f001 bc68 	b.w	5608 <gpioSetValue>
    3d38:	100003a0 	.word	0x100003a0
    3d3c:	40020004 	.word	0x40020004
    3d40:	100007d0 	.word	0x100007d0
    3d44:	40040000 	.word	0x40040000

00003d48 <lcd_deselect>:
    3d48:	2101      	movs	r1, #1
    3d4a:	b508      	push	{r3, lr}
    3d4c:	460a      	mov	r2, r1
    3d4e:	2002      	movs	r0, #2
    3d50:	f001 fc5a 	bl	5608 <gpioSetValue>
    3d54:	4b05      	ldr	r3, [pc, #20]	; (3d6c <lcd_deselect+0x24>)
    3d56:	f640 0207 	movw	r2, #2055	; 0x807
    3d5a:	601a      	str	r2, [r3, #0]
    3d5c:	4b04      	ldr	r3, [pc, #16]	; (3d70 <lcd_deselect+0x28>)
    3d5e:	781b      	ldrb	r3, [r3, #0]
    3d60:	b11b      	cbz	r3, 3d6a <lcd_deselect+0x22>
    3d62:	4b04      	ldr	r3, [pc, #16]	; (3d74 <lcd_deselect+0x2c>)
    3d64:	681a      	ldr	r2, [r3, #0]
    3d66:	4b04      	ldr	r3, [pc, #16]	; (3d78 <lcd_deselect+0x30>)
    3d68:	601a      	str	r2, [r3, #0]
    3d6a:	bd08      	pop	{r3, pc}
    3d6c:	40040000 	.word	0x40040000
    3d70:	100003a0 	.word	0x100003a0
    3d74:	100007d0 	.word	0x100007d0
    3d78:	40020004 	.word	0x40020004

00003d7c <lcdRead>:
    3d7c:	4b48      	ldr	r3, [pc, #288]	; (3ea0 <lcdRead+0x124>)
    3d7e:	4949      	ldr	r1, [pc, #292]	; (3ea4 <lcdRead+0x128>)
    3d80:	4a49      	ldr	r2, [pc, #292]	; (3ea8 <lcdRead+0x12c>)
    3d82:	e92d 41f0 	stmdb	sp!, {r4, r5, r6, r7, r8, lr}
    3d86:	f8d1 8000 	ldr.w	r8, [r1]
    3d8a:	681f      	ldr	r7, [r3, #0]
    3d8c:	6816      	ldr	r6, [r2, #0]
    3d8e:	2210      	movs	r2, #16
    3d90:	600a      	str	r2, [r1, #0]
    3d92:	4605      	mov	r5, r0
    3d94:	601a      	str	r2, [r3, #0]
    3d96:	2002      	movs	r0, #2
    3d98:	210b      	movs	r1, #11
    3d9a:	3a0f      	subs	r2, #15
    3d9c:	f001 fbe4 	bl	5568 <gpioSetDir>
    3da0:	2000      	movs	r0, #0
    3da2:	2109      	movs	r1, #9
    3da4:	2201      	movs	r2, #1
    3da6:	f001 fbdf 	bl	5568 <gpioSetDir>
    3daa:	2002      	movs	r0, #2
    3dac:	210b      	movs	r1, #11
    3dae:	2200      	movs	r2, #0
    3db0:	f001 fc2a 	bl	5608 <gpioSetValue>
    3db4:	2101      	movs	r1, #1
    3db6:	2200      	movs	r2, #0
    3db8:	2002      	movs	r0, #2
    3dba:	f001 fc25 	bl	5608 <gpioSetValue>
    3dbe:	2001      	movs	r0, #1
    3dc0:	f7fe fc56 	bl	2670 <delayms>
    3dc4:	2000      	movs	r0, #0
    3dc6:	4602      	mov	r2, r0
    3dc8:	2109      	movs	r1, #9
    3dca:	f001 fc1d 	bl	5608 <gpioSetValue>
    3dce:	2002      	movs	r0, #2
    3dd0:	210b      	movs	r1, #11
    3dd2:	2201      	movs	r2, #1
    3dd4:	f001 fc18 	bl	5608 <gpioSetValue>
    3dd8:	2001      	movs	r0, #1
    3dda:	f7fe fc49 	bl	2670 <delayms>
    3dde:	2408      	movs	r4, #8
    3de0:	2002      	movs	r0, #2
    3de2:	210b      	movs	r1, #11
    3de4:	2200      	movs	r2, #0
    3de6:	f001 fc0f 	bl	5608 <gpioSetValue>
    3dea:	2001      	movs	r0, #1
    3dec:	f7fe fc40 	bl	2670 <delayms>
    3df0:	f015 0f80 	tst.w	r5, #128	; 0x80
    3df4:	d003      	beq.n	3dfe <lcdRead+0x82>
    3df6:	2000      	movs	r0, #0
    3df8:	2109      	movs	r1, #9
    3dfa:	2201      	movs	r2, #1
    3dfc:	e002      	b.n	3e04 <lcdRead+0x88>
    3dfe:	2000      	movs	r0, #0
    3e00:	2109      	movs	r1, #9
    3e02:	4602      	mov	r2, r0
    3e04:	f001 fc00 	bl	5608 <gpioSetValue>
    3e08:	3c01      	subs	r4, #1
    3e0a:	2002      	movs	r0, #2
    3e0c:	210b      	movs	r1, #11
    3e0e:	2201      	movs	r2, #1
    3e10:	f001 fbfa 	bl	5608 <gpioSetValue>
    3e14:	b2e4      	uxtb	r4, r4
    3e16:	2001      	movs	r0, #1
    3e18:	f7fe fc2a 	bl	2670 <delayms>
    3e1c:	b114      	cbz	r4, 3e24 <lcdRead+0xa8>
    3e1e:	006d      	lsls	r5, r5, #1
    3e20:	b2ed      	uxtb	r5, r5
    3e22:	e7dd      	b.n	3de0 <lcdRead+0x64>
    3e24:	4620      	mov	r0, r4
    3e26:	2109      	movs	r1, #9
    3e28:	4622      	mov	r2, r4
    3e2a:	f001 fb9d 	bl	5568 <gpioSetDir>
    3e2e:	2508      	movs	r5, #8
    3e30:	2200      	movs	r2, #0
    3e32:	210b      	movs	r1, #11
    3e34:	2002      	movs	r0, #2
    3e36:	f001 fbe7 	bl	5608 <gpioSetValue>
    3e3a:	2001      	movs	r0, #1
    3e3c:	f7fe fc18 	bl	2670 <delayms>
    3e40:	2109      	movs	r1, #9
    3e42:	2000      	movs	r0, #0
    3e44:	f001 fbb6 	bl	55b4 <gpioGetValue>
    3e48:	0064      	lsls	r4, r4, #1
    3e4a:	b2e4      	uxtb	r4, r4
    3e4c:	4304      	orrs	r4, r0
    3e4e:	210b      	movs	r1, #11
    3e50:	2002      	movs	r0, #2
    3e52:	2201      	movs	r2, #1
    3e54:	3d01      	subs	r5, #1
    3e56:	f001 fbd7 	bl	5608 <gpioSetValue>
    3e5a:	b2ed      	uxtb	r5, r5
    3e5c:	2001      	movs	r0, #1
    3e5e:	b2e4      	uxtb	r4, r4
    3e60:	f7fe fc06 	bl	2670 <delayms>
    3e64:	2d00      	cmp	r5, #0
    3e66:	d1e3      	bne.n	3e30 <lcdRead+0xb4>
    3e68:	2002      	movs	r0, #2
    3e6a:	210b      	movs	r1, #11
    3e6c:	462a      	mov	r2, r5
    3e6e:	f001 fbcb 	bl	5608 <gpioSetValue>
    3e72:	2101      	movs	r1, #1
    3e74:	2002      	movs	r0, #2
    3e76:	460a      	mov	r2, r1
    3e78:	f001 fbc6 	bl	5608 <gpioSetValue>
    3e7c:	4628      	mov	r0, r5
    3e7e:	2109      	movs	r1, #9
    3e80:	2201      	movs	r2, #1
    3e82:	f001 fb71 	bl	5568 <gpioSetDir>
    3e86:	4b07      	ldr	r3, [pc, #28]	; (3ea4 <lcdRead+0x128>)
    3e88:	2001      	movs	r0, #1
    3e8a:	f8c3 8000 	str.w	r8, [r3]
    3e8e:	f843 7c0c 	str.w	r7, [r3, #-12]
    3e92:	4b05      	ldr	r3, [pc, #20]	; (3ea8 <lcdRead+0x12c>)
    3e94:	601e      	str	r6, [r3, #0]
    3e96:	f7fe fbeb 	bl	2670 <delayms>
    3e9a:	4620      	mov	r0, r4
    3e9c:	e8bd 81f0 	ldmia.w	sp!, {r4, r5, r6, r7, r8, pc}
    3ea0:	40044064 	.word	0x40044064
    3ea4:	40044070 	.word	0x40044070
    3ea8:	50028000 	.word	0x50028000

00003eac <lcdInit>:
    3eac:	2000      	movs	r0, #0
    3eae:	b570      	push	{r4, r5, r6, lr}
    3eb0:	4601      	mov	r1, r0
    3eb2:	4602      	mov	r2, r0
    3eb4:	f001 fe50 	bl	5b58 <sspInit>
    3eb8:	2101      	movs	r1, #1
    3eba:	2002      	movs	r0, #2
    3ebc:	460a      	mov	r2, r1
    3ebe:	f001 fba3 	bl	5608 <gpioSetValue>
    3ec2:	2002      	movs	r0, #2
    3ec4:	4601      	mov	r1, r0
    3ec6:	2201      	movs	r2, #1
    3ec8:	f001 fb9e 	bl	5608 <gpioSetValue>
    3ecc:	2101      	movs	r1, #1
    3ece:	2002      	movs	r0, #2
    3ed0:	460a      	mov	r2, r1
    3ed2:	f001 fb49 	bl	5568 <gpioSetDir>
    3ed6:	2002      	movs	r0, #2
    3ed8:	4601      	mov	r1, r0
    3eda:	2201      	movs	r2, #1
    3edc:	f001 fb44 	bl	5568 <gpioSetDir>
    3ee0:	2064      	movs	r0, #100	; 0x64
    3ee2:	f7fe fbc5 	bl	2670 <delayms>
    3ee6:	2002      	movs	r0, #2
    3ee8:	4601      	mov	r1, r0
    3eea:	2200      	movs	r2, #0
    3eec:	f001 fb8c 	bl	5608 <gpioSetValue>
    3ef0:	2064      	movs	r0, #100	; 0x64
    3ef2:	f7fe fbbd 	bl	2670 <delayms>
    3ef6:	2002      	movs	r0, #2
    3ef8:	4601      	mov	r1, r0
    3efa:	2201      	movs	r2, #1
    3efc:	f001 fb84 	bl	5608 <gpioSetValue>
    3f00:	2064      	movs	r0, #100	; 0x64
    3f02:	f7fe fbb5 	bl	2670 <delayms>
    3f06:	20dc      	movs	r0, #220	; 0xdc
    3f08:	f7ff ff38 	bl	3d7c <lcdRead>
    3f0c:	280e      	cmp	r0, #14
    3f0e:	4c17      	ldr	r4, [pc, #92]	; (3f6c <lcdInit+0xc0>)
    3f10:	d101      	bne.n	3f16 <lcdInit+0x6a>
    3f12:	2301      	movs	r3, #1
    3f14:	e000      	b.n	3f18 <lcdInit+0x6c>
    3f16:	2300      	movs	r3, #0
    3f18:	7023      	strb	r3, [r4, #0]
    3f1a:	f7ff fefb 	bl	3d14 <lcd_select>
    3f1e:	7824      	ldrb	r4, [r4, #0]
    3f20:	b95c      	cbnz	r4, 3f3a <lcdInit+0x8e>
    3f22:	4b13      	ldr	r3, [pc, #76]	; (3f70 <lcdInit+0xc4>)
    3f24:	2000      	movs	r0, #0
    3f26:	5d19      	ldrb	r1, [r3, r4]
    3f28:	f7ff fed8 	bl	3cdc <lcdWrite>
    3f2c:	3401      	adds	r4, #1
    3f2e:	2005      	movs	r0, #5
    3f30:	f7fe fb9e 	bl	2670 <delayms>
    3f34:	2c07      	cmp	r4, #7
    3f36:	d1f4      	bne.n	3f22 <lcdInit+0x76>
    3f38:	e013      	b.n	3f62 <lcdInit+0xb6>
    3f3a:	2000      	movs	r0, #0
    3f3c:	2101      	movs	r1, #1
    3f3e:	f7ff fecd 	bl	3cdc <lcdWrite>
    3f42:	200a      	movs	r0, #10
    3f44:	f7fe fb94 	bl	2670 <delayms>
    3f48:	2400      	movs	r4, #0
    3f4a:	f64f 55a0 	movw	r5, #64928	; 0xfda0
    3f4e:	4b09      	ldr	r3, [pc, #36]	; (3f74 <lcdInit+0xc8>)
    3f50:	f005 0001 	and.w	r0, r5, #1
    3f54:	5d19      	ldrb	r1, [r3, r4]
    3f56:	3401      	adds	r4, #1
    3f58:	f7ff fec0 	bl	3cdc <lcdWrite>
    3f5c:	086d      	lsrs	r5, r5, #1
    3f5e:	2c0c      	cmp	r4, #12
    3f60:	d1f5      	bne.n	3f4e <lcdInit+0xa2>
    3f62:	e8bd 4070 	ldmia.w	sp!, {r4, r5, r6, lr}
    3f66:	f7ff beef 	b.w	3d48 <lcd_deselect>
    3f6a:	bf00      	nop
    3f6c:	100007cc 	.word	0x100007cc
    3f70:	000062a3 	.word	0x000062a3
    3f74:	000062aa 	.word	0x000062aa

00003f78 <lcdFill>:
    3f78:	4601      	mov	r1, r0
    3f7a:	4802      	ldr	r0, [pc, #8]	; (3f84 <lcdFill+0xc>)
    3f7c:	f44f 7258 	mov.w	r2, #864	; 0x360
    3f80:	f001 bd24 	b.w	59cc <memset>
    3f84:	100007d4 	.word	0x100007d4

00003f88 <lcdSetPixel>:
    3f88:	2860      	cmp	r0, #96	; 0x60
    3f8a:	b530      	push	{r4, r5, lr}
    3f8c:	d826      	bhi.n	3fdc <lcdSetPixel+0x54>
    3f8e:	2944      	cmp	r1, #68	; 0x44
    3f90:	d824      	bhi.n	3fdc <lcdSetPixel+0x54>
    3f92:	43c9      	mvns	r1, r1
    3f94:	4b12      	ldr	r3, [pc, #72]	; (3fe0 <lcdSetPixel+0x58>)
    3f96:	3144      	adds	r1, #68	; 0x44
    3f98:	ea01 0303 	and.w	r3, r1, r3
    3f9c:	2b00      	cmp	r3, #0
    3f9e:	da03      	bge.n	3fa8 <lcdSetPixel+0x20>
    3fa0:	3b01      	subs	r3, #1
    3fa2:	f063 0307 	orn	r3, r3, #7
    3fa6:	3301      	adds	r3, #1
    3fa8:	43c0      	mvns	r0, r0
    3faa:	3060      	adds	r0, #96	; 0x60
    3fac:	2900      	cmp	r1, #0
    3fae:	bfb8      	it	lt
    3fb0:	3107      	addlt	r1, #7
    3fb2:	10c9      	asrs	r1, r1, #3
    3fb4:	2460      	movs	r4, #96	; 0x60
    3fb6:	b2c9      	uxtb	r1, r1
    3fb8:	fb04 0101 	mla	r1, r4, r1, r0
    3fbc:	4c09      	ldr	r4, [pc, #36]	; (3fe4 <lcdSetPixel+0x5c>)
    3fbe:	b2db      	uxtb	r3, r3
    3fc0:	5c60      	ldrb	r0, [r4, r1]
    3fc2:	4625      	mov	r5, r4
    3fc4:	2401      	movs	r4, #1
    3fc6:	b122      	cbz	r2, 3fd2 <lcdSetPixel+0x4a>
    3fc8:	fa14 f303 	lsls.w	r3, r4, r3
    3fcc:	ea40 0303 	orr.w	r3, r0, r3
    3fd0:	e003      	b.n	3fda <lcdSetPixel+0x52>
    3fd2:	fa14 f303 	lsls.w	r3, r4, r3
    3fd6:	ea20 0303 	bic.w	r3, r0, r3
    3fda:	546b      	strb	r3, [r5, r1]
    3fdc:	bd30      	pop	{r4, r5, pc}
    3fde:	bf00      	nop
    3fe0:	80000007 	.word	0x80000007
    3fe4:	100007d4 	.word	0x100007d4

00003fe8 <lcdGetPixel>:
    3fe8:	43c9      	mvns	r1, r1
    3fea:	f101 0344 	add.w	r3, r1, #68	; 0x44
    3fee:	43c0      	mvns	r0, r0
    3ff0:	2b00      	cmp	r3, #0
    3ff2:	461a      	mov	r2, r3
    3ff4:	bfb8      	it	lt
    3ff6:	f101 024b 	addlt.w	r2, r1, #75	; 0x4b
    3ffa:	10d2      	asrs	r2, r2, #3
    3ffc:	490d      	ldr	r1, [pc, #52]	; (4034 <lcdGetPixel+0x4c>)
    3ffe:	b510      	push	{r4, lr}
    4000:	b2d2      	uxtb	r2, r2
    4002:	2460      	movs	r4, #96	; 0x60
    4004:	fb04 1202 	mla	r2, r4, r2, r1
    4008:	1812      	adds	r2, r2, r0
    400a:	f892 1060 	ldrb.w	r1, [r2, #96]	; 0x60
    400e:	4a0a      	ldr	r2, [pc, #40]	; (4038 <lcdGetPixel+0x50>)
    4010:	ea03 0202 	and.w	r2, r3, r2
    4014:	2a00      	cmp	r2, #0
    4016:	da03      	bge.n	4020 <lcdGetPixel+0x38>
    4018:	3a01      	subs	r2, #1
    401a:	f062 0207 	orn	r2, r2, #7
    401e:	3201      	adds	r2, #1
    4020:	2301      	movs	r3, #1
    4022:	b2d2      	uxtb	r2, r2
    4024:	fa13 f202 	lsls.w	r2, r3, r2
    4028:	4211      	tst	r1, r2
    402a:	bf0c      	ite	eq
    402c:	2000      	moveq	r0, #0
    402e:	2001      	movne	r0, #1
    4030:	bd10      	pop	{r4, pc}
    4032:	bf00      	nop
    4034:	100007d4 	.word	0x100007d4
    4038:	80000007 	.word	0x80000007

0000403c <lcdDisplay>:
    403c:	e92d 41f0 	stmdb	sp!, {r4, r5, r6, r7, r8, lr}
    4040:	f7ff fe68 	bl	3d14 <lcd_select>
    4044:	4b2e      	ldr	r3, [pc, #184]	; (4100 <lcdDisplay+0xc4>)
    4046:	4e2f      	ldr	r6, [pc, #188]	; (4104 <lcdDisplay+0xc8>)
    4048:	781c      	ldrb	r4, [r3, #0]
    404a:	bb54      	cbnz	r4, 40a2 <lcdDisplay+0x66>
    404c:	4620      	mov	r0, r4
    404e:	21b0      	movs	r1, #176	; 0xb0
    4050:	f7ff fe44 	bl	3cdc <lcdWrite>
    4054:	4620      	mov	r0, r4
    4056:	2110      	movs	r1, #16
    4058:	f7ff fe40 	bl	3cdc <lcdWrite>
    405c:	4620      	mov	r0, r4
    405e:	4621      	mov	r1, r4
    4060:	f7ff fe3c 	bl	3cdc <lcdWrite>
    4064:	3460      	adds	r4, #96	; 0x60
    4066:	e018      	b.n	409a <lcdDisplay+0x5e>
    4068:	f896 3034 	ldrb.w	r3, [r6, #52]	; 0x34
    406c:	b113      	cbz	r3, 4074 <lcdDisplay+0x38>
    406e:	f817 1c01 	ldrb.w	r1, [r7, #-1]
    4072:	e002      	b.n	407a <lcdDisplay+0x3e>
    4074:	4b24      	ldr	r3, [pc, #144]	; (4108 <lcdDisplay+0xcc>)
    4076:	191b      	adds	r3, r3, r4
    4078:	5d59      	ldrb	r1, [r3, r5]
    407a:	f896 303c 	ldrb.w	r3, [r6, #60]	; 0x3c
    407e:	b10b      	cbz	r3, 4084 <lcdDisplay+0x48>
    4080:	43c9      	mvns	r1, r1
    4082:	b2c9      	uxtb	r1, r1
    4084:	2001      	movs	r0, #1
    4086:	3501      	adds	r5, #1
    4088:	f7ff fe28 	bl	3cdc <lcdWrite>
    408c:	3f01      	subs	r7, #1
    408e:	2d60      	cmp	r5, #96	; 0x60
    4090:	d1ea      	bne.n	4068 <lcdDisplay+0x2c>
    4092:	3460      	adds	r4, #96	; 0x60
    4094:	f5b4 7f70 	cmp.w	r4, #960	; 0x3c0
    4098:	d02e      	beq.n	40f8 <lcdDisplay+0xbc>
    409a:	4f1c      	ldr	r7, [pc, #112]	; (410c <lcdDisplay+0xd0>)
    409c:	2500      	movs	r5, #0
    409e:	19e7      	adds	r7, r4, r7
    40a0:	e7e2      	b.n	4068 <lcdDisplay+0x2c>
    40a2:	2000      	movs	r0, #0
    40a4:	212c      	movs	r1, #44	; 0x2c
    40a6:	f7ff fe19 	bl	3cdc <lcdWrite>
    40aa:	2543      	movs	r5, #67	; 0x43
    40ac:	e022      	b.n	40f4 <lcdDisplay+0xb8>
    40ae:	f896 3034 	ldrb.w	r3, [r6, #52]	; 0x34
    40b2:	b2e9      	uxtb	r1, r5
    40b4:	b11b      	cbz	r3, 40be <lcdDisplay+0x82>
    40b6:	f1c4 005f 	rsb	r0, r4, #95	; 0x5f
    40ba:	b2c0      	uxtb	r0, r0
    40bc:	e000      	b.n	40c0 <lcdDisplay+0x84>
    40be:	4620      	mov	r0, r4
    40c0:	f7ff ff92 	bl	3fe8 <lcdGetPixel>
    40c4:	f896 303c 	ldrb.w	r3, [r6, #60]	; 0x3c
    40c8:	2b00      	cmp	r3, #0
    40ca:	bf18      	it	ne
    40cc:	f080 0001 	eorne.w	r0, r0, #1
    40d0:	f010 0fff 	tst.w	r0, #255	; 0xff
    40d4:	d001      	beq.n	40da <lcdDisplay+0x9e>
    40d6:	2000      	movs	r0, #0
    40d8:	e000      	b.n	40dc <lcdDisplay+0xa0>
    40da:	20ff      	movs	r0, #255	; 0xff
    40dc:	3c01      	subs	r4, #1
    40de:	b2e4      	uxtb	r4, r4
    40e0:	f7ff fe14 	bl	3d0c <_helper_pixel8>
    40e4:	2cff      	cmp	r4, #255	; 0xff
    40e6:	d1e2      	bne.n	40ae <lcdDisplay+0x72>
    40e8:	3d01      	subs	r5, #1
    40ea:	b2ad      	uxth	r5, r5
    40ec:	f64f 73ff 	movw	r3, #65535	; 0xffff
    40f0:	429d      	cmp	r5, r3
    40f2:	d001      	beq.n	40f8 <lcdDisplay+0xbc>
    40f4:	245f      	movs	r4, #95	; 0x5f
    40f6:	e7da      	b.n	40ae <lcdDisplay+0x72>
    40f8:	e8bd 41f0 	ldmia.w	sp!, {r4, r5, r6, r7, r8, lr}
    40fc:	f7ff be24 	b.w	3d48 <lcd_deselect>
    4100:	100007cc 	.word	0x100007cc
    4104:	10000210 	.word	0x10000210
    4108:	10000774 	.word	0x10000774
    410c:	100007d4 	.word	0x100007d4

00004110 <lcdSetContrast>:
    4110:	b510      	push	{r4, lr}
    4112:	4604      	mov	r4, r0
    4114:	f7ff fdfe 	bl	3d14 <lcd_select>
    4118:	4b0c      	ldr	r3, [pc, #48]	; (414c <lcdSetContrast+0x3c>)
    411a:	7818      	ldrb	r0, [r3, #0]
    411c:	b928      	cbnz	r0, 412a <lcdSetContrast+0x1a>
    411e:	2c1e      	cmp	r4, #30
    4120:	dc0f      	bgt.n	4142 <lcdSetContrast+0x32>
    4122:	f1a4 0180 	sub.w	r1, r4, #128	; 0x80
    4126:	b2c9      	uxtb	r1, r1
    4128:	e009      	b.n	413e <lcdSetContrast+0x2e>
    412a:	2c3f      	cmp	r4, #63	; 0x3f
    412c:	dc09      	bgt.n	4142 <lcdSetContrast+0x32>
    412e:	2000      	movs	r0, #0
    4130:	2125      	movs	r1, #37	; 0x25
    4132:	f7ff fdd3 	bl	3cdc <lcdWrite>
    4136:	00a1      	lsls	r1, r4, #2
    4138:	2001      	movs	r0, #1
    413a:	f001 01fc 	and.w	r1, r1, #252	; 0xfc
    413e:	f7ff fdcd 	bl	3cdc <lcdWrite>
    4142:	e8bd 4010 	ldmia.w	sp!, {r4, lr}
    4146:	f7ff bdff 	b.w	3d48 <lcd_deselect>
    414a:	bf00      	nop
    414c:	100007cc 	.word	0x100007cc

00004150 <lcdSetInvert>:
    4150:	b510      	push	{r4, lr}
    4152:	4604      	mov	r4, r0
    4154:	f7ff fdde 	bl	3d14 <lcd_select>
    4158:	f004 0101 	and.w	r1, r4, #1
    415c:	395a      	subs	r1, #90	; 0x5a
    415e:	2000      	movs	r0, #0
    4160:	b2c9      	uxtb	r1, r1
    4162:	f7ff fdbb 	bl	3cdc <lcdWrite>
    4166:	e8bd 4010 	ldmia.w	sp!, {r4, lr}
    416a:	f7ff bded 	b.w	3d48 <lcd_deselect>
	...

00004170 <lcdShiftH>:
    4170:	e92d 43f8 	stmdb	sp!, {r3, r4, r5, r6, r7, r8, r9, lr}
    4174:	4c13      	ldr	r4, [pc, #76]	; (41c4 <lcdShiftH+0x54>)
    4176:	4681      	mov	r9, r0
    4178:	460f      	mov	r7, r1
    417a:	1c65      	adds	r5, r4, #1
    417c:	f504 7858 	add.w	r8, r4, #864	; 0x360
    4180:	f1b9 0f00 	cmp.w	r9, #0
    4184:	d00c      	beq.n	41a0 <lcdShiftH+0x30>
    4186:	f815 6c01 	ldrb.w	r6, [r5, #-1]
    418a:	4620      	mov	r0, r4
    418c:	4629      	mov	r1, r5
    418e:	225f      	movs	r2, #95	; 0x5f
    4190:	2f00      	cmp	r7, #0
    4192:	bf08      	it	eq
    4194:	2600      	moveq	r6, #0
    4196:	f001 fc3a 	bl	5a0e <memmove>
    419a:	f884 605f 	strb.w	r6, [r4, #95]	; 0x5f
    419e:	e00b      	b.n	41b8 <lcdShiftH+0x48>
    41a0:	f894 605f 	ldrb.w	r6, [r4, #95]	; 0x5f
    41a4:	4628      	mov	r0, r5
    41a6:	4621      	mov	r1, r4
    41a8:	225f      	movs	r2, #95	; 0x5f
    41aa:	2f00      	cmp	r7, #0
    41ac:	bf08      	it	eq
    41ae:	2600      	moveq	r6, #0
    41b0:	f001 fc2d 	bl	5a0e <memmove>
    41b4:	f805 6c01 	strb.w	r6, [r5, #-1]
    41b8:	3460      	adds	r4, #96	; 0x60
    41ba:	3560      	adds	r5, #96	; 0x60
    41bc:	4544      	cmp	r4, r8
    41be:	d1df      	bne.n	4180 <lcdShiftH+0x10>
    41c0:	e8bd 83f8 	ldmia.w	sp!, {r3, r4, r5, r6, r7, r8, r9, pc}
    41c4:	100007d4 	.word	0x100007d4

000041c8 <lcdShiftV8>:
    41c8:	b500      	push	{lr}
    41ca:	b099      	sub	sp, #100	; 0x64
    41cc:	b998      	cbnz	r0, 41f6 <lcdShiftV8+0x2e>
    41ce:	b129      	cbz	r1, 41dc <lcdShiftV8+0x14>
    41d0:	4668      	mov	r0, sp
    41d2:	4915      	ldr	r1, [pc, #84]	; (4228 <lcdShiftV8+0x60>)
    41d4:	2260      	movs	r2, #96	; 0x60
    41d6:	f001 fc1a 	bl	5a0e <memmove>
    41da:	e003      	b.n	41e4 <lcdShiftV8+0x1c>
    41dc:	4668      	mov	r0, sp
    41de:	2260      	movs	r2, #96	; 0x60
    41e0:	f001 fbf4 	bl	59cc <memset>
    41e4:	4810      	ldr	r0, [pc, #64]	; (4228 <lcdShiftV8+0x60>)
    41e6:	f44f 7240 	mov.w	r2, #768	; 0x300
    41ea:	f100 0160 	add.w	r1, r0, #96	; 0x60
    41ee:	f001 fc0e 	bl	5a0e <memmove>
    41f2:	480e      	ldr	r0, [pc, #56]	; (422c <lcdShiftV8+0x64>)
    41f4:	e012      	b.n	421c <lcdShiftV8+0x54>
    41f6:	b129      	cbz	r1, 4204 <lcdShiftV8+0x3c>
    41f8:	4668      	mov	r0, sp
    41fa:	490c      	ldr	r1, [pc, #48]	; (422c <lcdShiftV8+0x64>)
    41fc:	2260      	movs	r2, #96	; 0x60
    41fe:	f001 fc06 	bl	5a0e <memmove>
    4202:	e003      	b.n	420c <lcdShiftV8+0x44>
    4204:	4668      	mov	r0, sp
    4206:	2260      	movs	r2, #96	; 0x60
    4208:	f001 fbe0 	bl	59cc <memset>
    420c:	4808      	ldr	r0, [pc, #32]	; (4230 <lcdShiftV8+0x68>)
    420e:	f44f 7240 	mov.w	r2, #768	; 0x300
    4212:	f1a0 0160 	sub.w	r1, r0, #96	; 0x60
    4216:	f001 fbfa 	bl	5a0e <memmove>
    421a:	4803      	ldr	r0, [pc, #12]	; (4228 <lcdShiftV8+0x60>)
    421c:	4669      	mov	r1, sp
    421e:	2260      	movs	r2, #96	; 0x60
    4220:	f001 fbf5 	bl	5a0e <memmove>
    4224:	b019      	add	sp, #100	; 0x64
    4226:	bd00      	pop	{pc}
    4228:	100007d4 	.word	0x100007d4
    422c:	10000ad4 	.word	0x10000ad4
    4230:	10000834 	.word	0x10000834

00004234 <lcdShiftV>:
    4234:	b5f0      	push	{r4, r5, r6, r7, lr}
    4236:	4c2d      	ldr	r4, [pc, #180]	; (42ec <lcdShiftV+0xb8>)
    4238:	b099      	sub	sp, #100	; 0x64
    423a:	b340      	cbz	r0, 428e <lcdShiftV+0x5a>
    423c:	b131      	cbz	r1, 424c <lcdShiftV+0x18>
    423e:	4668      	mov	r0, sp
    4240:	f504 7140 	add.w	r1, r4, #768	; 0x300
    4244:	2260      	movs	r2, #96	; 0x60
    4246:	f001 fbe2 	bl	5a0e <memmove>
    424a:	e003      	b.n	4254 <lcdShiftV+0x20>
    424c:	4668      	mov	r0, sp
    424e:	2260      	movs	r2, #96	; 0x60
    4250:	f001 fbbc 	bl	59cc <memset>
    4254:	2300      	movs	r3, #0
    4256:	e017      	b.n	4288 <lcdShiftV+0x54>
    4258:	f892 02a0 	ldrb.w	r0, [r2, #672]	; 0x2a0
    425c:	f892 5300 	ldrb.w	r5, [r2, #768]	; 0x300
    4260:	09c0      	lsrs	r0, r0, #7
    4262:	ea40 0045 	orr.w	r0, r0, r5, lsl #1
    4266:	f882 0300 	strb.w	r0, [r2, #768]	; 0x300
    426a:	3a60      	subs	r2, #96	; 0x60
    426c:	3901      	subs	r1, #1
    426e:	d1f3      	bne.n	4258 <lcdShiftV+0x24>
    4270:	f81d 2003 	ldrb.w	r2, [sp, r3]
    4274:	5ce1      	ldrb	r1, [r4, r3]
    4276:	08d2      	lsrs	r2, r2, #3
    4278:	f002 0201 	and.w	r2, r2, #1
    427c:	ea42 0241 	orr.w	r2, r2, r1, lsl #1
    4280:	54e2      	strb	r2, [r4, r3]
    4282:	3301      	adds	r3, #1
    4284:	2b60      	cmp	r3, #96	; 0x60
    4286:	d02e      	beq.n	42e6 <lcdShiftV+0xb2>
    4288:	18e2      	adds	r2, r4, r3
    428a:	2108      	movs	r1, #8
    428c:	e7e4      	b.n	4258 <lcdShiftV+0x24>
    428e:	b129      	cbz	r1, 429c <lcdShiftV+0x68>
    4290:	4668      	mov	r0, sp
    4292:	4621      	mov	r1, r4
    4294:	2260      	movs	r2, #96	; 0x60
    4296:	f001 fbba 	bl	5a0e <memmove>
    429a:	e003      	b.n	42a4 <lcdShiftV+0x70>
    429c:	4668      	mov	r0, sp
    429e:	2260      	movs	r2, #96	; 0x60
    42a0:	f001 fb94 	bl	59cc <memset>
    42a4:	4912      	ldr	r1, [pc, #72]	; (42f0 <lcdShiftV+0xbc>)
    42a6:	f10d 35ff 	add.w	r5, sp, #4294967295
    42aa:	2260      	movs	r2, #96	; 0x60
    42ac:	e018      	b.n	42e0 <lcdShiftV+0xac>
    42ae:	f813 6c60 	ldrb.w	r6, [r3, #-96]
    42b2:	781f      	ldrb	r7, [r3, #0]
    42b4:	0876      	lsrs	r6, r6, #1
    42b6:	3001      	adds	r0, #1
    42b8:	ea46 16c7 	orr.w	r6, r6, r7, lsl #7
    42bc:	f803 6c60 	strb.w	r6, [r3, #-96]
    42c0:	3360      	adds	r3, #96	; 0x60
    42c2:	2808      	cmp	r0, #8
    42c4:	d1f3      	bne.n	42ae <lcdShiftV+0x7a>
    42c6:	f815 3f01 	ldrb.w	r3, [r5, #1]!
    42ca:	7808      	ldrb	r0, [r1, #0]
    42cc:	00db      	lsls	r3, r3, #3
    42ce:	f003 0308 	and.w	r3, r3, #8
    42d2:	3201      	adds	r2, #1
    42d4:	ea43 0350 	orr.w	r3, r3, r0, lsr #1
    42d8:	2ac0      	cmp	r2, #192	; 0xc0
    42da:	f801 3b01 	strb.w	r3, [r1], #1
    42de:	d002      	beq.n	42e6 <lcdShiftV+0xb2>
    42e0:	18a3      	adds	r3, r4, r2
    42e2:	2000      	movs	r0, #0
    42e4:	e7e3      	b.n	42ae <lcdShiftV+0x7a>
    42e6:	b019      	add	sp, #100	; 0x64
    42e8:	bdf0      	pop	{r4, r5, r6, r7, pc}
    42ea:	bf00      	nop
    42ec:	100007d4 	.word	0x100007d4
    42f0:	10000ad4 	.word	0x10000ad4

000042f4 <lcdShift>:
    42f4:	b5f8      	push	{r3, r4, r5, r6, r7, lr}
    42f6:	1e05      	subs	r5, r0, #0
    42f8:	460c      	mov	r4, r1
    42fa:	4616      	mov	r6, r2
    42fc:	da02      	bge.n	4304 <lcdShift+0x10>
    42fe:	426d      	negs	r5, r5
    4300:	2700      	movs	r7, #0
    4302:	e006      	b.n	4312 <lcdShift+0x1e>
    4304:	2701      	movs	r7, #1
    4306:	e004      	b.n	4312 <lcdShift+0x1e>
    4308:	4638      	mov	r0, r7
    430a:	4631      	mov	r1, r6
    430c:	f7ff ff30 	bl	4170 <lcdShiftH>
    4310:	3d01      	subs	r5, #1
    4312:	2d00      	cmp	r5, #0
    4314:	dcf8      	bgt.n	4308 <lcdShift+0x14>
    4316:	2c00      	cmp	r4, #0
    4318:	da02      	bge.n	4320 <lcdShift+0x2c>
    431a:	4264      	negs	r4, r4
    431c:	2500      	movs	r5, #0
    431e:	e006      	b.n	432e <lcdShift+0x3a>
    4320:	2501      	movs	r5, #1
    4322:	e004      	b.n	432e <lcdShift+0x3a>
    4324:	4628      	mov	r0, r5
    4326:	4631      	mov	r1, r6
    4328:	3c08      	subs	r4, #8
    432a:	f7ff ff4d 	bl	41c8 <lcdShiftV8>
    432e:	2c07      	cmp	r4, #7
    4330:	dcf8      	bgt.n	4324 <lcdShift+0x30>
    4332:	e004      	b.n	433e <lcdShift+0x4a>
    4334:	4628      	mov	r0, r5
    4336:	4631      	mov	r1, r6
    4338:	f7ff ff7c 	bl	4234 <lcdShiftV>
    433c:	3c01      	subs	r4, #1
    433e:	2c00      	cmp	r4, #0
    4340:	dcf8      	bgt.n	4334 <lcdShift+0x40>
    4342:	bdf8      	pop	{r3, r4, r5, r6, r7, pc}

00004344 <read_byte>:
    4344:	b507      	push	{r0, r1, r2, lr}
    4346:	2201      	movs	r2, #1
    4348:	f10d 0107 	add.w	r1, sp, #7
    434c:	466b      	mov	r3, sp
    434e:	4803      	ldr	r0, [pc, #12]	; (435c <read_byte+0x18>)
    4350:	f7fd f98f 	bl	1672 <f_read>
    4354:	f89d 0007 	ldrb.w	r0, [sp, #7]
    4358:	bd0e      	pop	{r1, r2, r3, pc}
    435a:	bf00      	nop
    435c:	1000032c 	.word	0x1000032c

00004360 <setIntFont>:
    4360:	b508      	push	{r3, lr}
    4362:	4601      	mov	r1, r0
    4364:	2210      	movs	r2, #16
    4366:	4805      	ldr	r0, [pc, #20]	; (437c <setIntFont+0x1c>)
    4368:	f001 fb51 	bl	5a0e <memmove>
    436c:	4b04      	ldr	r3, [pc, #16]	; (4380 <setIntFont+0x20>)
    436e:	2201      	movs	r2, #1
    4370:	f803 2b10 	strb.w	r2, [r3], #16
    4374:	4a03      	ldr	r2, [pc, #12]	; (4384 <setIntFont+0x24>)
    4376:	6013      	str	r3, [r2, #0]
    4378:	bd08      	pop	{r3, pc}
    437a:	bf00      	nop
    437c:	10000b44 	.word	0x10000b44
    4380:	10000b34 	.word	0x10000b34
    4384:	10000354 	.word	0x10000354

00004388 <setExtFont>:
    4388:	b510      	push	{r4, lr}
    438a:	4604      	mov	r4, r0
    438c:	f001 fb67 	bl	5a5e <strlen>
    4390:	280c      	cmp	r0, #12
    4392:	d809      	bhi.n	43a8 <setExtFont+0x20>
    4394:	4805      	ldr	r0, [pc, #20]	; (43ac <setExtFont+0x24>)
    4396:	4621      	mov	r1, r4
    4398:	f001 fb69 	bl	5a6e <strcpy>
    439c:	4b04      	ldr	r3, [pc, #16]	; (43b0 <setExtFont+0x28>)
    439e:	2202      	movs	r2, #2
    43a0:	701a      	strb	r2, [r3, #0]
    43a2:	4b04      	ldr	r3, [pc, #16]	; (43b4 <setExtFont+0x2c>)
    43a4:	3a02      	subs	r2, #2
    43a6:	601a      	str	r2, [r3, #0]
    43a8:	bd10      	pop	{r4, pc}
    43aa:	bf00      	nop
    43ac:	10000b35 	.word	0x10000b35
    43b0:	10000b34 	.word	0x10000b34
    43b4:	10000354 	.word	0x10000354

000043b8 <getFontHeight>:
    43b8:	4b03      	ldr	r3, [pc, #12]	; (43c8 <getFontHeight+0x10>)
    43ba:	681b      	ldr	r3, [r3, #0]
    43bc:	b10b      	cbz	r3, 43c2 <getFontHeight+0xa>
    43be:	7858      	ldrb	r0, [r3, #1]
    43c0:	4770      	bx	lr
    43c2:	2008      	movs	r0, #8
    43c4:	4770      	bx	lr
    43c6:	bf00      	nop
    43c8:	10000354 	.word	0x10000354

000043cc <_getFontData>:
    43cc:	b573      	push	{r0, r1, r4, r5, r6, lr}
    43ce:	4e33      	ldr	r6, [pc, #204]	; (449c <_getFontData+0xd0>)
    43d0:	4604      	mov	r4, r0
    43d2:	7835      	ldrb	r5, [r6, #0]
    43d4:	2d02      	cmp	r5, #2
    43d6:	d15f      	bne.n	4498 <_getFontData+0xcc>
    43d8:	b990      	cbnz	r0, 4400 <_getFontData+0x34>
    43da:	f7ff ffb3 	bl	4344 <read_byte>
    43de:	7430      	strb	r0, [r6, #16]
    43e0:	f7ff ffb0 	bl	4344 <read_byte>
    43e4:	7470      	strb	r0, [r6, #17]
    43e6:	f7ff ffad 	bl	4344 <read_byte>
    43ea:	74b0      	strb	r0, [r6, #18]
    43ec:	f7ff ffaa 	bl	4344 <read_byte>
    43f0:	492b      	ldr	r1, [pc, #172]	; (44a0 <_getFontData+0xd4>)
    43f2:	74f0      	strb	r0, [r6, #19]
    43f4:	462a      	mov	r2, r5
    43f6:	466b      	mov	r3, sp
    43f8:	482a      	ldr	r0, [pc, #168]	; (44a4 <_getFontData+0xd8>)
    43fa:	f7fd f93a 	bl	1672 <f_read>
    43fe:	e049      	b.n	4494 <_getFontData+0xc8>
    4400:	2801      	cmp	r0, #1
    4402:	d102      	bne.n	440a <_getFontData+0x3e>
    4404:	4827      	ldr	r0, [pc, #156]	; (44a4 <_getFontData+0xd8>)
    4406:	2106      	movs	r1, #6
    4408:	e02b      	b.n	4462 <_getFontData+0x96>
    440a:	2802      	cmp	r0, #2
    440c:	d109      	bne.n	4422 <_getFontData+0x56>
    440e:	4825      	ldr	r0, [pc, #148]	; (44a4 <_getFontData+0xd8>)
    4410:	f10d 0106 	add.w	r1, sp, #6
    4414:	4622      	mov	r2, r4
    4416:	466b      	mov	r3, sp
    4418:	f7fd f92b 	bl	1672 <f_read>
    441c:	f8bd 0006 	ldrh.w	r0, [sp, #6]
    4420:	e03b      	b.n	449a <_getFontData+0xce>
    4422:	2803      	cmp	r0, #3
    4424:	d105      	bne.n	4432 <_getFontData+0x66>
    4426:	4b1e      	ldr	r3, [pc, #120]	; (44a0 <_getFontData+0xd4>)
    4428:	481e      	ldr	r0, [pc, #120]	; (44a4 <_getFontData+0xd8>)
    442a:	8819      	ldrh	r1, [r3, #0]
    442c:	3103      	adds	r1, #3
    442e:	0049      	lsls	r1, r1, #1
    4430:	e017      	b.n	4462 <_getFontData+0x96>
    4432:	2804      	cmp	r0, #4
    4434:	d001      	beq.n	443a <_getFontData+0x6e>
    4436:	2806      	cmp	r0, #6
    4438:	d102      	bne.n	4440 <_getFontData+0x74>
    443a:	f7ff ff83 	bl	4344 <read_byte>
    443e:	e02c      	b.n	449a <_getFontData+0xce>
    4440:	2805      	cmp	r0, #5
    4442:	d111      	bne.n	4468 <_getFontData+0x9c>
    4444:	4b18      	ldr	r3, [pc, #96]	; (44a8 <_getFontData+0xdc>)
    4446:	4a19      	ldr	r2, [pc, #100]	; (44ac <_getFontData+0xe0>)
    4448:	8019      	strh	r1, [r3, #0]
    444a:	6812      	ldr	r2, [r2, #0]
    444c:	4b14      	ldr	r3, [pc, #80]	; (44a0 <_getFontData+0xd4>)
    444e:	78d4      	ldrb	r4, [r2, #3]
    4450:	881b      	ldrh	r3, [r3, #0]
    4452:	7890      	ldrb	r0, [r2, #2]
    4454:	18e4      	adds	r4, r4, r3
    4456:	1a22      	subs	r2, r4, r0
    4458:	1851      	adds	r1, r2, r1
    445a:	3303      	adds	r3, #3
    445c:	4811      	ldr	r0, [pc, #68]	; (44a4 <_getFontData+0xd8>)
    445e:	eb01 0143 	add.w	r1, r1, r3, lsl #1
    4462:	f7fd fae8 	bl	1a36 <f_lseek>
    4466:	e017      	b.n	4498 <_getFontData+0xcc>
    4468:	2807      	cmp	r0, #7
    446a:	d115      	bne.n	4498 <_getFontData+0xcc>
    446c:	f7ff ff6a 	bl	4344 <read_byte>
    4470:	4b0b      	ldr	r3, [pc, #44]	; (44a0 <_getFontData+0xd4>)
    4472:	4a0e      	ldr	r2, [pc, #56]	; (44ac <_getFontData+0xe0>)
    4474:	490c      	ldr	r1, [pc, #48]	; (44a8 <_getFontData+0xdc>)
    4476:	881b      	ldrh	r3, [r3, #0]
    4478:	6812      	ldr	r2, [r2, #0]
    447a:	8809      	ldrh	r1, [r1, #0]
    447c:	4604      	mov	r4, r0
    447e:	1cd8      	adds	r0, r3, #3
    4480:	eb01 0140 	add.w	r1, r1, r0, lsl #1
    4484:	78d0      	ldrb	r0, [r2, #3]
    4486:	7892      	ldrb	r2, [r2, #2]
    4488:	18c3      	adds	r3, r0, r3
    448a:	1a9b      	subs	r3, r3, r2
    448c:	4805      	ldr	r0, [pc, #20]	; (44a4 <_getFontData+0xd8>)
    448e:	18c9      	adds	r1, r1, r3
    4490:	f7fd fad1 	bl	1a36 <f_lseek>
    4494:	4620      	mov	r0, r4
    4496:	e000      	b.n	449a <_getFontData+0xce>
    4498:	2000      	movs	r0, #0
    449a:	bd7c      	pop	{r2, r3, r4, r5, r6, pc}
    449c:	10000b34 	.word	0x10000b34
    44a0:	10000350 	.word	0x10000350
    44a4:	1000032c 	.word	0x1000032c
    44a8:	10000358 	.word	0x10000358
    44ac:	10000354 	.word	0x10000354

000044b0 <DoChar>:
    44b0:	e92d 4ff0 	stmdb	sp!, {r4, r5, r6, r7, r8, r9, sl, fp, lr}
    44b4:	4ba8      	ldr	r3, [pc, #672]	; (4758 <DoChar+0x2a8>)
    44b6:	b08b      	sub	sp, #44	; 0x2c
    44b8:	681d      	ldr	r5, [r3, #0]
    44ba:	4606      	mov	r6, r0
    44bc:	4689      	mov	r9, r1
    44be:	4617      	mov	r7, r2
    44c0:	4698      	mov	r8, r3
    44c2:	b9bd      	cbnz	r5, 44f4 <DoChar+0x44>
    44c4:	4ca5      	ldr	r4, [pc, #660]	; (475c <DoChar+0x2ac>)
    44c6:	7823      	ldrb	r3, [r4, #0]
    44c8:	2b01      	cmp	r3, #1
    44ca:	d00c      	beq.n	44e6 <DoChar+0x36>
    44cc:	2b02      	cmp	r3, #2
    44ce:	d10e      	bne.n	44ee <DoChar+0x3e>
    44d0:	1c61      	adds	r1, r4, #1
    44d2:	48a3      	ldr	r0, [pc, #652]	; (4760 <DoChar+0x2b0>)
    44d4:	2201      	movs	r2, #1
    44d6:	f7fc ffe9 	bl	14ac <f_open>
    44da:	4601      	mov	r1, r0
    44dc:	b108      	cbz	r0, 44e2 <DoChar+0x32>
    44de:	7025      	strb	r5, [r4, #0]
    44e0:	e005      	b.n	44ee <DoChar+0x3e>
    44e2:	f7ff ff73 	bl	43cc <_getFontData>
    44e6:	3410      	adds	r4, #16
    44e8:	f8c8 4000 	str.w	r4, [r8]
    44ec:	e002      	b.n	44f4 <DoChar+0x44>
    44ee:	4b9d      	ldr	r3, [pc, #628]	; (4764 <DoChar+0x2b4>)
    44f0:	f8c8 3000 	str.w	r3, [r8]
    44f4:	f8d8 2000 	ldr.w	r2, [r8]
    44f8:	7855      	ldrb	r5, [r2, #1]
    44fa:	78d0      	ldrb	r0, [r2, #3]
    44fc:	1e6b      	subs	r3, r5, #1
    44fe:	bf48      	it	mi
    4500:	1dab      	addmi	r3, r5, #6
    4502:	10db      	asrs	r3, r3, #3
    4504:	1c5c      	adds	r4, r3, #1
    4506:	9304      	str	r3, [sp, #16]
    4508:	7893      	ldrb	r3, [r2, #2]
    450a:	b2e4      	uxtb	r4, r4
    450c:	429f      	cmp	r7, r3
    450e:	bfb8      	it	lt
    4510:	1c5f      	addlt	r7, r3, #1
    4512:	4287      	cmp	r7, r0
    4514:	dd26      	ble.n	4564 <DoChar+0xb4>
    4516:	4991      	ldr	r1, [pc, #580]	; (475c <DoChar+0x2ac>)
    4518:	7809      	ldrb	r1, [r1, #0]
    451a:	2902      	cmp	r1, #2
    451c:	f000 81df 	beq.w	48de <DoChar+0x42e>
    4520:	68d1      	ldr	r1, [r2, #12]
    4522:	b1d9      	cbz	r1, 455c <DoChar+0xac>
    4524:	2200      	movs	r2, #0
    4526:	e014      	b.n	4552 <DoChar+0xa2>
    4528:	f10a 0a01 	add.w	sl, sl, #1
    452c:	2002      	movs	r0, #2
    452e:	2100      	movs	r1, #0
    4530:	f7ff ff4c 	bl	43cc <_getFontData>
    4534:	42b8      	cmp	r0, r7
    4536:	dbf7      	blt.n	4528 <DoChar+0x78>
    4538:	dd04      	ble.n	4544 <DoChar+0x94>
    453a:	f8d8 3000 	ldr.w	r3, [r8]
    453e:	789f      	ldrb	r7, [r3, #2]
    4540:	3701      	adds	r7, #1
    4542:	e00f      	b.n	4564 <DoChar+0xb4>
    4544:	f8d8 3000 	ldr.w	r3, [r8]
    4548:	78df      	ldrb	r7, [r3, #3]
    454a:	3701      	adds	r7, #1
    454c:	4457      	add	r7, sl
    454e:	e009      	b.n	4564 <DoChar+0xb4>
    4550:	3201      	adds	r2, #1
    4552:	f831 cb02 	ldrh.w	ip, [r1], #2
    4556:	45bc      	cmp	ip, r7
    4558:	dbfa      	blt.n	4550 <DoChar+0xa0>
    455a:	dd01      	ble.n	4560 <DoChar+0xb0>
    455c:	1c5f      	adds	r7, r3, #1
    455e:	e001      	b.n	4564 <DoChar+0xb4>
    4560:	3001      	adds	r0, #1
    4562:	1887      	adds	r7, r0, r2
    4564:	f8d8 3000 	ldr.w	r3, [r8]
    4568:	7898      	ldrb	r0, [r3, #2]
    456a:	f893 8000 	ldrb.w	r8, [r3]
    456e:	1a3f      	subs	r7, r7, r0
    4570:	f1b8 0f00 	cmp.w	r8, #0
    4574:	d145      	bne.n	4602 <DoChar+0x152>
    4576:	4a79      	ldr	r2, [pc, #484]	; (475c <DoChar+0x2ac>)
    4578:	7812      	ldrb	r2, [r2, #0]
    457a:	2a02      	cmp	r2, #2
    457c:	d001      	beq.n	4582 <DoChar+0xd2>
    457e:	4642      	mov	r2, r8
    4580:	e034      	b.n	45ec <DoChar+0x13c>
    4582:	2003      	movs	r0, #3
    4584:	4641      	mov	r1, r8
    4586:	f7ff ff21 	bl	43cc <_getFontData>
    458a:	46c2      	mov	sl, r8
    458c:	e006      	b.n	459c <DoChar+0xec>
    458e:	2004      	movs	r0, #4
    4590:	2100      	movs	r1, #0
    4592:	f7ff ff1b 	bl	43cc <_getFontData>
    4596:	f108 0801 	add.w	r8, r8, #1
    459a:	4482      	add	sl, r0
    459c:	45b8      	cmp	r8, r7
    459e:	dbf6      	blt.n	458e <DoChar+0xde>
    45a0:	2100      	movs	r1, #0
    45a2:	2004      	movs	r0, #4
    45a4:	f7ff ff12 	bl	43cc <_getFontData>
    45a8:	4651      	mov	r1, sl
    45aa:	9009      	str	r0, [sp, #36]	; 0x24
    45ac:	2005      	movs	r0, #5
    45ae:	f7ff ff0d 	bl	43cc <_getFontData>
    45b2:	9a09      	ldr	r2, [sp, #36]	; 0x24
    45b4:	486a      	ldr	r0, [pc, #424]	; (4760 <DoChar+0x2b0>)
    45b6:	4362      	muls	r2, r4
    45b8:	496b      	ldr	r1, [pc, #428]	; (4768 <DoChar+0x2b8>)
    45ba:	f5b2 7f16 	cmp.w	r2, #600	; 0x258
    45be:	bf28      	it	cs
    45c0:	f44f 7216 	movcs.w	r2, #600	; 0x258
    45c4:	ab08      	add	r3, sp, #32
    45c6:	f7fd f854 	bl	1672 <f_read>
    45ca:	2800      	cmp	r0, #0
    45cc:	f040 8183 	bne.w	48d6 <DoChar+0x426>
    45d0:	9b09      	ldr	r3, [sp, #36]	; 0x24
    45d2:	9a08      	ldr	r2, [sp, #32]
    45d4:	4363      	muls	r3, r4
    45d6:	429a      	cmp	r2, r3
    45d8:	f0c0 817d 	bcc.w	48d6 <DoChar+0x426>
    45dc:	2301      	movs	r3, #1
    45de:	4607      	mov	r7, r0
    45e0:	e059      	b.n	4696 <DoChar+0x1e6>
    45e2:	f811 1008 	ldrb.w	r1, [r1, r8]
    45e6:	f108 0801 	add.w	r8, r8, #1
    45ea:	1852      	adds	r2, r2, r1
    45ec:	45b8      	cmp	r8, r7
    45ee:	6899      	ldr	r1, [r3, #8]
    45f0:	dbf7      	blt.n	45e2 <DoChar+0x132>
    45f2:	5dc9      	ldrb	r1, [r1, r7]
    45f4:	6858      	ldr	r0, [r3, #4]
    45f6:	9109      	str	r1, [sp, #36]	; 0x24
    45f8:	fb04 0002 	mla	r0, r4, r2, r0
    45fc:	2301      	movs	r3, #1
    45fe:	2700      	movs	r7, #0
    4600:	e07a      	b.n	46f8 <DoChar+0x248>
    4602:	f1b8 0f01 	cmp.w	r8, #1
    4606:	d16e      	bne.n	46e6 <DoChar+0x236>
    4608:	4a54      	ldr	r2, [pc, #336]	; (475c <DoChar+0x2ac>)
    460a:	7812      	ldrb	r2, [r2, #0]
    460c:	2a02      	cmp	r2, #2
    460e:	d002      	beq.n	4616 <DoChar+0x166>
    4610:	2100      	movs	r1, #0
    4612:	460a      	mov	r2, r1
    4614:	e04a      	b.n	46ac <DoChar+0x1fc>
    4616:	2003      	movs	r0, #3
    4618:	2100      	movs	r1, #0
    461a:	f04f 0a00 	mov.w	sl, #0
    461e:	f7ff fed5 	bl	43cc <_getFontData>
    4622:	46d0      	mov	r8, sl
    4624:	e006      	b.n	4634 <DoChar+0x184>
    4626:	2004      	movs	r0, #4
    4628:	2100      	movs	r1, #0
    462a:	f7ff fecf 	bl	43cc <_getFontData>
    462e:	f10a 0a01 	add.w	sl, sl, #1
    4632:	4480      	add	r8, r0
    4634:	45ba      	cmp	sl, r7
    4636:	dbf6      	blt.n	4626 <DoChar+0x176>
    4638:	2100      	movs	r1, #0
    463a:	2004      	movs	r0, #4
    463c:	f7ff fec6 	bl	43cc <_getFontData>
    4640:	4641      	mov	r1, r8
    4642:	9009      	str	r0, [sp, #36]	; 0x24
    4644:	2005      	movs	r0, #5
    4646:	f7ff fec1 	bl	43cc <_getFontData>
    464a:	f7ff fe7b 	bl	4344 <read_byte>
    464e:	0900      	lsrs	r0, r0, #4
    4650:	b2c0      	uxtb	r0, r0
    4652:	280f      	cmp	r0, #15
    4654:	d121      	bne.n	469a <DoChar+0x1ea>
    4656:	f7ff fe75 	bl	4344 <read_byte>
    465a:	4607      	mov	r7, r0
    465c:	f7ff fe72 	bl	4344 <read_byte>
    4660:	9a09      	ldr	r2, [sp, #36]	; 0x24
    4662:	4680      	mov	r8, r0
    4664:	3a03      	subs	r2, #3
    4666:	fb92 f2f4 	sdiv	r2, r2, r4
    466a:	9209      	str	r2, [sp, #36]	; 0x24
    466c:	4362      	muls	r2, r4
    466e:	483c      	ldr	r0, [pc, #240]	; (4760 <DoChar+0x2b0>)
    4670:	493d      	ldr	r1, [pc, #244]	; (4768 <DoChar+0x2b8>)
    4672:	f5b2 7f16 	cmp.w	r2, #600	; 0x258
    4676:	bf28      	it	cs
    4678:	f44f 7216 	movcs.w	r2, #600	; 0x258
    467c:	ab08      	add	r3, sp, #32
    467e:	f7fc fff8 	bl	1672 <f_read>
    4682:	2800      	cmp	r0, #0
    4684:	f040 8127 	bne.w	48d6 <DoChar+0x426>
    4688:	9b09      	ldr	r3, [sp, #36]	; 0x24
    468a:	9a08      	ldr	r2, [sp, #32]
    468c:	4363      	muls	r3, r4
    468e:	429a      	cmp	r2, r3
    4690:	f0c0 8121 	bcc.w	48d6 <DoChar+0x426>
    4694:	4643      	mov	r3, r8
    4696:	4834      	ldr	r0, [pc, #208]	; (4768 <DoChar+0x2b8>)
    4698:	e02e      	b.n	46f8 <DoChar+0x248>
    469a:	2005      	movs	r0, #5
    469c:	4641      	mov	r1, r8
    469e:	f7ff fe95 	bl	43cc <_getFontData>
    46a2:	2000      	movs	r0, #0
    46a4:	e01b      	b.n	46de <DoChar+0x22e>
    46a6:	5c40      	ldrb	r0, [r0, r1]
    46a8:	3101      	adds	r1, #1
    46aa:	1812      	adds	r2, r2, r0
    46ac:	42b9      	cmp	r1, r7
    46ae:	6898      	ldr	r0, [r3, #8]
    46b0:	dbf9      	blt.n	46a6 <DoChar+0x1f6>
    46b2:	5dc1      	ldrb	r1, [r0, r7]
    46b4:	f8d3 c004 	ldr.w	ip, [r3, #4]
    46b8:	9109      	str	r1, [sp, #36]	; 0x24
    46ba:	f81c 3002 	ldrb.w	r3, [ip, r2]
    46be:	eb0c 0002 	add.w	r0, ip, r2
    46c2:	091b      	lsrs	r3, r3, #4
    46c4:	2b0f      	cmp	r3, #15
    46c6:	d10a      	bne.n	46de <DoChar+0x22e>
    46c8:	7847      	ldrb	r7, [r0, #1]
    46ca:	7883      	ldrb	r3, [r0, #2]
    46cc:	1cd0      	adds	r0, r2, #3
    46ce:	f06f 0202 	mvn.w	r2, #2
    46d2:	fb92 f2f4 	sdiv	r2, r2, r4
    46d6:	1851      	adds	r1, r2, r1
    46d8:	4460      	add	r0, ip
    46da:	9109      	str	r1, [sp, #36]	; 0x24
    46dc:	e00c      	b.n	46f8 <DoChar+0x248>
    46de:	a909      	add	r1, sp, #36	; 0x24
    46e0:	f000 f9c8 	bl	4a74 <pk_decode>
    46e4:	e006      	b.n	46f4 <DoChar+0x244>
    46e6:	fb08 f004 	mul.w	r0, r8, r4
    46ea:	685b      	ldr	r3, [r3, #4]
    46ec:	f8cd 8024 	str.w	r8, [sp, #36]	; 0x24
    46f0:	fb07 3000 	mla	r0, r7, r0, r3
    46f4:	2300      	movs	r3, #0
    46f6:	461f      	mov	r7, r3
    46f8:	426d      	negs	r5, r5
    46fa:	f005 0507 	and.w	r5, r5, #7
    46fe:	f109 0904 	add.w	r9, r9, #4
    4702:	ebc5 0909 	rsb	r9, r5, r9
    4706:	4919      	ldr	r1, [pc, #100]	; (476c <DoChar+0x2bc>)
    4708:	f1b9 0f00 	cmp.w	r9, #0
    470c:	464a      	mov	r2, r9
    470e:	ea09 0101 	and.w	r1, r9, r1
    4712:	bfb8      	it	lt
    4714:	f109 0207 	addlt.w	r2, r9, #7
    4718:	10d2      	asrs	r2, r2, #3
    471a:	2900      	cmp	r1, #0
    471c:	9503      	str	r5, [sp, #12]
    471e:	da03      	bge.n	4728 <DoChar+0x278>
    4720:	3901      	subs	r1, #1
    4722:	f061 0107 	orn	r1, r1, #7
    4726:	3101      	adds	r1, #1
    4728:	f1b1 0c00 	subs.w	ip, r1, #0
    472c:	9909      	ldr	r1, [sp, #36]	; 0x24
    472e:	bfb8      	it	lt
    4730:	f10c 0c08 	addlt.w	ip, ip, #8
    4734:	9105      	str	r1, [sp, #20]
    4736:	bfb8      	it	lt
    4738:	3a01      	sublt	r2, #1
    473a:	f06f 015f 	mvn.w	r1, #95	; 0x5f
    473e:	4351      	muls	r1, r2
    4740:	19be      	adds	r6, r7, r6
    4742:	eb0c 05c4 	add.w	r5, ip, r4, lsl #3
    4746:	1b89      	subs	r1, r1, r6
    4748:	9502      	str	r5, [sp, #8]
    474a:	9600      	str	r6, [sp, #0]
    474c:	9101      	str	r1, [sp, #4]
    474e:	2500      	movs	r5, #0
    4750:	9007      	str	r0, [sp, #28]
    4752:	469a      	mov	sl, r3
    4754:	e0b8      	b.n	48c8 <DoChar+0x418>
    4756:	bf00      	nop
    4758:	10000354 	.word	0x10000354
    475c:	10000b34 	.word	0x10000b34
    4760:	1000032c 	.word	0x1000032c
    4764:	00006560 	.word	0x00006560
    4768:	10000b54 	.word	0x10000b54
    476c:	80000007 	.word	0x80000007
    4770:	2a00      	cmp	r2, #0
    4772:	f2c0 809b 	blt.w	48ac <DoChar+0x3fc>
    4776:	2a08      	cmp	r2, #8
    4778:	f300 8098 	bgt.w	48ac <DoChar+0x3fc>
    477c:	9e02      	ldr	r6, [sp, #8]
    477e:	2e08      	cmp	r6, #8
    4780:	bfd4      	ite	le
    4782:	ea26 71e6 	bicle.w	r1, r6, r6, asr #31
    4786:	2108      	movgt	r1, #8
    4788:	f1c1 0108 	rsb	r1, r1, #8
    478c:	23ff      	movs	r3, #255	; 0xff
    478e:	fa53 f101 	asrs.w	r1, r3, r1
    4792:	b2c9      	uxtb	r1, r1
    4794:	b925      	cbnz	r5, 47a0 <DoChar+0x2f0>
    4796:	f8dd 800c 	ldr.w	r8, [sp, #12]
    479a:	eb0c 0308 	add.w	r3, ip, r8
    479e:	e008      	b.n	47b2 <DoChar+0x302>
    47a0:	2d01      	cmp	r5, #1
    47a2:	d108      	bne.n	47b6 <DoChar+0x306>
    47a4:	f8dd 900c 	ldr.w	r9, [sp, #12]
    47a8:	eb0c 0309 	add.w	r3, ip, r9
    47ac:	2b08      	cmp	r3, #8
    47ae:	dd02      	ble.n	47b6 <DoChar+0x306>
    47b0:	3b08      	subs	r3, #8
    47b2:	4099      	lsls	r1, r3
    47b4:	b2c9      	uxtb	r1, r1
    47b6:	2900      	cmp	r1, #0
    47b8:	d078      	beq.n	48ac <DoChar+0x3fc>
    47ba:	9801      	ldr	r0, [sp, #4]
    47bc:	fa91 f1a1 	rbit	r1, r1
    47c0:	ba09      	rev	r1, r1
    47c2:	f500 7656 	add.w	r6, r0, #856	; 0x358
    47c6:	4849      	ldr	r0, [pc, #292]	; (48ec <DoChar+0x43c>)
    47c8:	3607      	adds	r6, #7
    47ca:	b2c9      	uxtb	r1, r1
    47cc:	1836      	adds	r6, r6, r0
    47ce:	2301      	movs	r3, #1
    47d0:	e00c      	b.n	47ec <DoChar+0x33c>
    47d2:	f8dd 8000 	ldr.w	r8, [sp]
    47d6:	ebb8 0003 	subs.w	r0, r8, r3
    47da:	d405      	bmi.n	47e8 <DoChar+0x338>
    47dc:	285f      	cmp	r0, #95	; 0x5f
    47de:	dc03      	bgt.n	47e8 <DoChar+0x338>
    47e0:	7870      	ldrb	r0, [r6, #1]
    47e2:	ea20 0001 	bic.w	r0, r0, r1
    47e6:	7070      	strb	r0, [r6, #1]
    47e8:	3301      	adds	r3, #1
    47ea:	3601      	adds	r6, #1
    47ec:	42bb      	cmp	r3, r7
    47ee:	ddf0      	ble.n	47d2 <DoChar+0x322>
    47f0:	483e      	ldr	r0, [pc, #248]	; (48ec <DoChar+0x43c>)
    47f2:	9e04      	ldr	r6, [sp, #16]
    47f4:	f8dd 9004 	ldr.w	r9, [sp, #4]
    47f8:	f106 0801 	add.w	r8, r6, #1
    47fc:	eb00 0309 	add.w	r3, r0, r9
    4800:	9807      	ldr	r0, [sp, #28]
    4802:	fa5f f888 	uxtb.w	r8, r8
    4806:	4480      	add	r8, r0
    4808:	ebc5 0808 	rsb	r8, r5, r8
    480c:	9e00      	ldr	r6, [sp, #0]
    480e:	2000      	movs	r0, #0
    4810:	46bb      	mov	fp, r7
    4812:	e02c      	b.n	486e <DoChar+0x3be>
    4814:	b145      	cbz	r5, 4828 <DoChar+0x378>
    4816:	ebc4 0905 	rsb	r9, r4, r5
    481a:	44c1      	add	r9, r8
    481c:	1b67      	subs	r7, r4, r5
    481e:	42a5      	cmp	r5, r4
    4820:	f819 9007 	ldrb.w	r9, [r9, r7]
    4824:	d004      	beq.n	4830 <DoChar+0x380>
    4826:	e000      	b.n	482a <DoChar+0x37a>
    4828:	46a9      	mov	r9, r5
    482a:	f818 7c01 	ldrb.w	r7, [r8, #-1]
    482e:	e000      	b.n	4832 <DoChar+0x382>
    4830:	2700      	movs	r7, #0
    4832:	fa07 f70c 	lsl.w	r7, r7, ip
    4836:	9706      	str	r7, [sp, #24]
    4838:	f1cc 0708 	rsb	r7, ip, #8
    483c:	fa49 f707 	asr.w	r7, r9, r7
    4840:	f8dd 9018 	ldr.w	r9, [sp, #24]
    4844:	2e00      	cmp	r6, #0
    4846:	ea49 0707 	orr.w	r7, r9, r7
    484a:	fa97 f7a7 	rbit	r7, r7
    484e:	ba3f      	rev	r7, r7
    4850:	db09      	blt.n	4866 <DoChar+0x3b6>
    4852:	2e5f      	cmp	r6, #95	; 0x5f
    4854:	dc07      	bgt.n	4866 <DoChar+0x3b6>
    4856:	f893 935f 	ldrb.w	r9, [r3, #863]	; 0x35f
    485a:	ea29 0901 	bic.w	r9, r9, r1
    485e:	ea47 0709 	orr.w	r7, r7, r9
    4862:	f883 735f 	strb.w	r7, [r3, #863]	; 0x35f
    4866:	3001      	adds	r0, #1
    4868:	3601      	adds	r6, #1
    486a:	3b01      	subs	r3, #1
    486c:	44a0      	add	r8, r4
    486e:	9f05      	ldr	r7, [sp, #20]
    4870:	42b8      	cmp	r0, r7
    4872:	dbcf      	blt.n	4814 <DoChar+0x364>
    4874:	f8dd 8000 	ldr.w	r8, [sp]
    4878:	f8dd 9004 	ldr.w	r9, [sp, #4]
    487c:	4e1b      	ldr	r6, [pc, #108]	; (48ec <DoChar+0x43c>)
    487e:	eb00 0308 	add.w	r3, r0, r8
    4882:	ebc0 0009 	rsb	r0, r0, r9
    4886:	1830      	adds	r0, r6, r0
    4888:	465f      	mov	r7, fp
    488a:	2600      	movs	r6, #0
    488c:	e00c      	b.n	48a8 <DoChar+0x3f8>
    488e:	2b00      	cmp	r3, #0
    4890:	db07      	blt.n	48a2 <DoChar+0x3f2>
    4892:	2b5f      	cmp	r3, #95	; 0x5f
    4894:	dc05      	bgt.n	48a2 <DoChar+0x3f2>
    4896:	f890 835f 	ldrb.w	r8, [r0, #863]	; 0x35f
    489a:	ea28 0801 	bic.w	r8, r8, r1
    489e:	f880 835f 	strb.w	r8, [r0, #863]	; 0x35f
    48a2:	3601      	adds	r6, #1
    48a4:	3301      	adds	r3, #1
    48a6:	3801      	subs	r0, #1
    48a8:	4556      	cmp	r6, sl
    48aa:	dbf0      	blt.n	488e <DoChar+0x3de>
    48ac:	f8dd 8004 	ldr.w	r8, [sp, #4]
    48b0:	f8dd 9008 	ldr.w	r9, [sp, #8]
    48b4:	f1a8 0860 	sub.w	r8, r8, #96	; 0x60
    48b8:	f1a9 0908 	sub.w	r9, r9, #8
    48bc:	3501      	adds	r5, #1
    48be:	3201      	adds	r2, #1
    48c0:	f8cd 8004 	str.w	r8, [sp, #4]
    48c4:	f8cd 9008 	str.w	r9, [sp, #8]
    48c8:	42a5      	cmp	r5, r4
    48ca:	f77f af51 	ble.w	4770 <DoChar+0x2c0>
    48ce:	9e09      	ldr	r6, [sp, #36]	; 0x24
    48d0:	9800      	ldr	r0, [sp, #0]
    48d2:	4456      	add	r6, sl
    48d4:	1836      	adds	r6, r6, r0
    48d6:	4630      	mov	r0, r6
    48d8:	b00b      	add	sp, #44	; 0x2c
    48da:	e8bd 8ff0 	ldmia.w	sp!, {r4, r5, r6, r7, r8, r9, sl, fp, pc}
    48de:	2001      	movs	r0, #1
    48e0:	2100      	movs	r1, #0
    48e2:	f7ff fd73 	bl	43cc <_getFontData>
    48e6:	f04f 0a00 	mov.w	sl, #0
    48ea:	e61f      	b.n	452c <DoChar+0x7c>
    48ec:	100007d4 	.word	0x100007d4

000048f0 <DoString>:
    48f0:	b570      	push	{r4, r5, r6, lr}
    48f2:	460d      	mov	r5, r1
    48f4:	4614      	mov	r4, r2
    48f6:	e027      	b.n	4948 <DoString+0x58>
    48f8:	f002 03e0 	and.w	r3, r2, #224	; 0xe0
    48fc:	2bc0      	cmp	r3, #192	; 0xc0
    48fe:	d108      	bne.n	4912 <DoString+0x22>
    4900:	7863      	ldrb	r3, [r4, #1]
    4902:	1c66      	adds	r6, r4, #1
    4904:	b12b      	cbz	r3, 4912 <DoString+0x22>
    4906:	f002 021f 	and.w	r2, r2, #31
    490a:	f003 033f 	and.w	r3, r3, #63	; 0x3f
    490e:	0192      	lsls	r2, r2, #6
    4910:	e010      	b.n	4934 <DoString+0x44>
    4912:	f002 03f0 	and.w	r3, r2, #240	; 0xf0
    4916:	2be0      	cmp	r3, #224	; 0xe0
    4918:	d112      	bne.n	4940 <DoString+0x50>
    491a:	7863      	ldrb	r3, [r4, #1]
    491c:	b183      	cbz	r3, 4940 <DoString+0x50>
    491e:	78a1      	ldrb	r1, [r4, #2]
    4920:	1ca6      	adds	r6, r4, #2
    4922:	b169      	cbz	r1, 4940 <DoString+0x50>
    4924:	f001 013f 	and.w	r1, r1, #63	; 0x3f
    4928:	0712      	lsls	r2, r2, #28
    492a:	f003 033f 	and.w	r3, r3, #63	; 0x3f
    492e:	eb01 4212 	add.w	r2, r1, r2, lsr #16
    4932:	019b      	lsls	r3, r3, #6
    4934:	4629      	mov	r1, r5
    4936:	18d2      	adds	r2, r2, r3
    4938:	f7ff fdba 	bl	44b0 <DoChar>
    493c:	4634      	mov	r4, r6
    493e:	e002      	b.n	4946 <DoString+0x56>
    4940:	4629      	mov	r1, r5
    4942:	f7ff fdb5 	bl	44b0 <DoChar>
    4946:	3401      	adds	r4, #1
    4948:	7822      	ldrb	r2, [r4, #0]
    494a:	2a00      	cmp	r2, #0
    494c:	d1d4      	bne.n	48f8 <DoString+0x8>
    494e:	bd70      	pop	{r4, r5, r6, pc}

00004950 <DoInt>:
    4950:	b573      	push	{r0, r1, r4, r5, r6, lr}
    4952:	2300      	movs	r3, #0
    4954:	1e14      	subs	r4, r2, #0
    4956:	f88d 3005 	strb.w	r3, [sp, #5]
    495a:	da02      	bge.n	4962 <DoInt+0x12>
    495c:	4264      	negs	r4, r4
    495e:	3301      	adds	r3, #1
    4960:	e001      	b.n	4966 <DoInt+0x16>
    4962:	bf08      	it	eq
    4964:	2302      	moveq	r3, #2
    4966:	2204      	movs	r2, #4
    4968:	260a      	movs	r6, #10
    496a:	fb94 f5f6 	sdiv	r5, r4, r6
    496e:	fb06 4615 	mls	r6, r6, r5, r4
    4972:	3630      	adds	r6, #48	; 0x30
    4974:	f80d 6002 	strb.w	r6, [sp, r2]
    4978:	b93c      	cbnz	r4, 498a <DoInt+0x3a>
    497a:	ad02      	add	r5, sp, #8
    497c:	18ac      	adds	r4, r5, r2
    497e:	2520      	movs	r5, #32
    4980:	f804 5c08 	strb.w	r5, [r4, #-8]
    4984:	ac00      	add	r4, sp, #0
    4986:	18a2      	adds	r2, r4, r2
    4988:	e004      	b.n	4994 <DoInt+0x44>
    498a:	3a01      	subs	r2, #1
    498c:	d301      	bcc.n	4992 <DoInt+0x42>
    498e:	462c      	mov	r4, r5
    4990:	e7ea      	b.n	4968 <DoInt+0x18>
    4992:	466a      	mov	r2, sp
    4994:	2b01      	cmp	r3, #1
    4996:	d101      	bne.n	499c <DoInt+0x4c>
    4998:	332c      	adds	r3, #44	; 0x2c
    499a:	e002      	b.n	49a2 <DoInt+0x52>
    499c:	2b02      	cmp	r3, #2
    499e:	d102      	bne.n	49a6 <DoInt+0x56>
    49a0:	332e      	adds	r3, #46	; 0x2e
    49a2:	7013      	strb	r3, [r2, #0]
    49a4:	e001      	b.n	49aa <DoInt+0x5a>
    49a6:	b903      	cbnz	r3, 49aa <DoInt+0x5a>
    49a8:	3201      	adds	r2, #1
    49aa:	f7ff ffa1 	bl	48f0 <DoString>
    49ae:	bd7c      	pop	{r2, r3, r4, r5, r6, pc}

000049b0 <DoIntXn>:
    49b0:	b530      	push	{r4, r5, lr}
    49b2:	b085      	sub	sp, #20
    49b4:	ad04      	add	r5, sp, #16
    49b6:	4614      	mov	r4, r2
    49b8:	18ea      	adds	r2, r5, r3
    49ba:	2500      	movs	r5, #0
    49bc:	f802 5c0c 	strb.w	r5, [r2, #-12]
    49c0:	e008      	b.n	49d4 <DoIntXn+0x24>
    49c2:	f004 050f 	and.w	r5, r4, #15
    49c6:	3530      	adds	r5, #48	; 0x30
    49c8:	2d39      	cmp	r5, #57	; 0x39
    49ca:	54d5      	strb	r5, [r2, r3]
    49cc:	d901      	bls.n	49d2 <DoIntXn+0x22>
    49ce:	3507      	adds	r5, #7
    49d0:	54d5      	strb	r5, [r2, r3]
    49d2:	0924      	lsrs	r4, r4, #4
    49d4:	3b01      	subs	r3, #1
    49d6:	2b00      	cmp	r3, #0
    49d8:	aa01      	add	r2, sp, #4
    49da:	daf2      	bge.n	49c2 <DoIntXn+0x12>
    49dc:	f7ff ff88 	bl	48f0 <DoString>
    49e0:	b005      	add	sp, #20
    49e2:	bd30      	pop	{r4, r5, pc}

000049e4 <DoIntX>:
    49e4:	2308      	movs	r3, #8
    49e6:	f7ff bfe3 	b.w	49b0 <DoIntXn>
	...

000049ec <gnn>:
    49ec:	4a13      	ldr	r2, [pc, #76]	; (4a3c <gnn+0x50>)
    49ee:	b510      	push	{r4, lr}
    49f0:	6813      	ldr	r3, [r2, #0]
    49f2:	4611      	mov	r1, r2
    49f4:	2b01      	cmp	r3, #1
    49f6:	d103      	bne.n	4a00 <gnn+0x14>
    49f8:	4a11      	ldr	r2, [pc, #68]	; (4a40 <gnn+0x54>)
    49fa:	6810      	ldr	r0, [r2, #0]
    49fc:	3001      	adds	r0, #1
    49fe:	6010      	str	r0, [r2, #0]
    4a00:	f1c3 0301 	rsb	r3, r3, #1
    4a04:	2b01      	cmp	r3, #1
    4a06:	600b      	str	r3, [r1, #0]
    4a08:	4c0e      	ldr	r4, [pc, #56]	; (4a44 <gnn+0x58>)
    4a0a:	d112      	bne.n	4a32 <gnn+0x46>
    4a0c:	4b0e      	ldr	r3, [pc, #56]	; (4a48 <gnn+0x5c>)
    4a0e:	781b      	ldrb	r3, [r3, #0]
    4a10:	2b02      	cmp	r3, #2
    4a12:	d105      	bne.n	4a20 <gnn+0x34>
    4a14:	2006      	movs	r0, #6
    4a16:	2100      	movs	r1, #0
    4a18:	f7ff fcd8 	bl	43cc <_getFontData>
    4a1c:	6020      	str	r0, [r4, #0]
    4a1e:	e005      	b.n	4a2c <gnn+0x40>
    4a20:	4b0a      	ldr	r3, [pc, #40]	; (4a4c <gnn+0x60>)
    4a22:	681a      	ldr	r2, [r3, #0]
    4a24:	4b06      	ldr	r3, [pc, #24]	; (4a40 <gnn+0x54>)
    4a26:	681b      	ldr	r3, [r3, #0]
    4a28:	5cd3      	ldrb	r3, [r2, r3]
    4a2a:	6023      	str	r3, [r4, #0]
    4a2c:	6820      	ldr	r0, [r4, #0]
    4a2e:	1100      	asrs	r0, r0, #4
    4a30:	e002      	b.n	4a38 <gnn+0x4c>
    4a32:	6820      	ldr	r0, [r4, #0]
    4a34:	f000 000f 	and.w	r0, r0, #15
    4a38:	b2c0      	uxtb	r0, r0
    4a3a:	bd10      	pop	{r4, pc}
    4a3c:	1000035c 	.word	0x1000035c
    4a40:	10000364 	.word	0x10000364
    4a44:	10000360 	.word	0x10000360
    4a48:	10000b34 	.word	0x10000b34
    4a4c:	10000dac 	.word	0x10000dac

00004a50 <upl>:
    4a50:	b538      	push	{r3, r4, r5, lr}
    4a52:	4604      	mov	r4, r0
    4a54:	e000      	b.n	4a58 <upl+0x8>
    4a56:	3401      	adds	r4, #1
    4a58:	f7ff ffc8 	bl	49ec <gnn>
    4a5c:	2800      	cmp	r0, #0
    4a5e:	d0fa      	beq.n	4a56 <upl+0x6>
    4a60:	e004      	b.n	4a6c <upl+0x1c>
    4a62:	0105      	lsls	r5, r0, #4
    4a64:	f7ff ffc2 	bl	49ec <gnn>
    4a68:	3c01      	subs	r4, #1
    4a6a:	1940      	adds	r0, r0, r5
    4a6c:	2c00      	cmp	r4, #0
    4a6e:	dcf8      	bgt.n	4a62 <upl+0x12>
    4a70:	bd38      	pop	{r3, r4, r5, pc}
	...

00004a74 <pk_decode>:
    4a74:	e92d 4ff0 	stmdb	sp!, {r4, r5, r6, r7, r8, r9, sl, fp, lr}
    4a78:	4a54      	ldr	r2, [pc, #336]	; (4bcc <pk_decode+0x158>)
    4a7a:	4f55      	ldr	r7, [pc, #340]	; (4bd0 <pk_decode+0x15c>)
    4a7c:	2300      	movs	r3, #0
    4a7e:	603b      	str	r3, [r7, #0]
    4a80:	6013      	str	r3, [r2, #0]
    4a82:	4b54      	ldr	r3, [pc, #336]	; (4bd4 <pk_decode+0x160>)
    4a84:	b085      	sub	sp, #20
    4a86:	6018      	str	r0, [r3, #0]
    4a88:	4b53      	ldr	r3, [pc, #332]	; (4bd8 <pk_decode+0x164>)
    4a8a:	680a      	ldr	r2, [r1, #0]
    4a8c:	681b      	ldr	r3, [r3, #0]
    4a8e:	460e      	mov	r6, r1
    4a90:	785b      	ldrb	r3, [r3, #1]
    4a92:	9201      	str	r2, [sp, #4]
    4a94:	1e5d      	subs	r5, r3, #1
    4a96:	bf48      	it	mi
    4a98:	1d9d      	addmi	r5, r3, #6
    4a9a:	f003 0307 	and.w	r3, r3, #7
    4a9e:	9302      	str	r3, [sp, #8]
    4aa0:	4b4e      	ldr	r3, [pc, #312]	; (4bdc <pk_decode+0x168>)
    4aa2:	10ed      	asrs	r5, r5, #3
    4aa4:	781b      	ldrb	r3, [r3, #0]
    4aa6:	1c6c      	adds	r4, r5, #1
    4aa8:	2b02      	cmp	r3, #2
    4aaa:	d112      	bne.n	4ad2 <pk_decode+0x5e>
    4aac:	2007      	movs	r0, #7
    4aae:	2100      	movs	r1, #0
    4ab0:	f7ff fc8c 	bl	43cc <_getFontData>
    4ab4:	1100      	asrs	r0, r0, #4
    4ab6:	280e      	cmp	r0, #14
    4ab8:	e00e      	b.n	4ad8 <pk_decode+0x64>
    4aba:	f04f 0b00 	mov.w	fp, #0
    4abe:	f8df 8120 	ldr.w	r8, [pc, #288]	; 4be0 <pk_decode+0x16c>
    4ac2:	f04f 0900 	mov.w	r9, #0
    4ac6:	9603      	str	r6, [sp, #12]
    4ac8:	46ca      	mov	sl, r9
    4aca:	462e      	mov	r6, r5
    4acc:	4625      	mov	r5, r4
    4ace:	4644      	mov	r4, r8
    4ad0:	e06c      	b.n	4bac <pk_decode+0x138>
    4ad2:	7803      	ldrb	r3, [r0, #0]
    4ad4:	091b      	lsrs	r3, r3, #4
    4ad6:	2b0e      	cmp	r3, #14
    4ad8:	d1ef      	bne.n	4aba <pk_decode+0x46>
    4ada:	f7ff ff87 	bl	49ec <gnn>
    4ade:	f04f 0b01 	mov.w	fp, #1
    4ae2:	e7ec      	b.n	4abe <pk_decode+0x4a>
    4ae4:	f7ff ff82 	bl	49ec <gnn>
    4ae8:	280f      	cmp	r0, #15
    4aea:	4680      	mov	r8, r0
    4aec:	d102      	bne.n	4af4 <pk_decode+0x80>
    4aee:	f10a 0a01 	add.w	sl, sl, #1
    4af2:	e05b      	b.n	4bac <pk_decode+0x138>
    4af4:	280e      	cmp	r0, #14
    4af6:	d106      	bne.n	4b06 <pk_decode+0x92>
    4af8:	2000      	movs	r0, #0
    4afa:	f7ff ffa9 	bl	4a50 <upl>
    4afe:	f10a 0a01 	add.w	sl, sl, #1
    4b02:	4482      	add	sl, r0
    4b04:	e052      	b.n	4bac <pk_decode+0x138>
    4b06:	280c      	cmp	r0, #12
    4b08:	dd07      	ble.n	4b1a <pk_decode+0xa6>
    4b0a:	f7ff ff6f 	bl	49ec <gnn>
    4b0e:	ea4f 1808 	mov.w	r8, r8, lsl #4
    4b12:	f1a8 08c3 	sub.w	r8, r8, #195	; 0xc3
    4b16:	4480      	add	r8, r0
    4b18:	e043      	b.n	4ba2 <pk_decode+0x12e>
    4b1a:	2800      	cmp	r0, #0
    4b1c:	d141      	bne.n	4ba2 <pk_decode+0x12e>
    4b1e:	2001      	movs	r0, #1
    4b20:	f7ff ff96 	bl	4a50 <upl>
    4b24:	f100 080c 	add.w	r8, r0, #12
    4b28:	e03b      	b.n	4ba2 <pk_decode+0x12e>
    4b2a:	f1b9 0f00 	cmp.w	r9, #0
    4b2e:	d101      	bne.n	4b34 <pk_decode+0xc0>
    4b30:	f884 9000 	strb.w	r9, [r4]
    4b34:	f1bb 0f01 	cmp.w	fp, #1
    4b38:	d107      	bne.n	4b4a <pk_decode+0xd6>
    4b3a:	f1c9 0207 	rsb	r2, r9, #7
    4b3e:	fa0b f202 	lsl.w	r2, fp, r2
    4b42:	7823      	ldrb	r3, [r4, #0]
    4b44:	ea42 0303 	orr.w	r3, r2, r3
    4b48:	7023      	strb	r3, [r4, #0]
    4b4a:	4a25      	ldr	r2, [pc, #148]	; (4be0 <pk_decode+0x16c>)
    4b4c:	f109 0901 	add.w	r9, r9, #1
    4b50:	1aa3      	subs	r3, r4, r2
    4b52:	fb93 f2f5 	sdiv	r2, r3, r5
    4b56:	fb05 3312 	mls	r3, r5, r2, r3
    4b5a:	42b3      	cmp	r3, r6
    4b5c:	d102      	bne.n	4b64 <pk_decode+0xf0>
    4b5e:	9b02      	ldr	r3, [sp, #8]
    4b60:	4599      	cmp	r9, r3
    4b62:	d002      	beq.n	4b6a <pk_decode+0xf6>
    4b64:	f1b9 0f08 	cmp.w	r9, #8
    4b68:	d119      	bne.n	4b9e <pk_decode+0x12a>
    4b6a:	4b1d      	ldr	r3, [pc, #116]	; (4be0 <pk_decode+0x16c>)
    4b6c:	3401      	adds	r4, #1
    4b6e:	1ae3      	subs	r3, r4, r3
    4b70:	fb93 f2f5 	sdiv	r2, r3, r5
    4b74:	fb05 3312 	mls	r3, r5, r2, r3
    4b78:	b97b      	cbnz	r3, 4b9a <pk_decode+0x126>
    4b7a:	e009      	b.n	4b90 <pk_decode+0x11c>
    4b7c:	1ba2      	subs	r2, r4, r6
    4b7e:	f812 2c01 	ldrb.w	r2, [r2, #-1]
    4b82:	3301      	adds	r3, #1
    4b84:	42ab      	cmp	r3, r5
    4b86:	f804 2b01 	strb.w	r2, [r4], #1
    4b8a:	dbf7      	blt.n	4b7c <pk_decode+0x108>
    4b8c:	f10a 3aff 	add.w	sl, sl, #4294967295
    4b90:	f1ba 0f00 	cmp.w	sl, #0
    4b94:	dd01      	ble.n	4b9a <pk_decode+0x126>
    4b96:	2300      	movs	r3, #0
    4b98:	e7f0      	b.n	4b7c <pk_decode+0x108>
    4b9a:	f04f 0900 	mov.w	r9, #0
    4b9e:	f108 38ff 	add.w	r8, r8, #4294967295
    4ba2:	f1b8 0f00 	cmp.w	r8, #0
    4ba6:	dcc0      	bgt.n	4b2a <pk_decode+0xb6>
    4ba8:	f1cb 0b01 	rsb	fp, fp, #1
    4bac:	683b      	ldr	r3, [r7, #0]
    4bae:	9a01      	ldr	r2, [sp, #4]
    4bb0:	4293      	cmp	r3, r2
    4bb2:	db97      	blt.n	4ae4 <pk_decode+0x70>
    4bb4:	4b0a      	ldr	r3, [pc, #40]	; (4be0 <pk_decode+0x16c>)
    4bb6:	9e03      	ldr	r6, [sp, #12]
    4bb8:	ebc3 0804 	rsb	r8, r3, r4
    4bbc:	fb98 f4f5 	sdiv	r4, r8, r5
    4bc0:	6034      	str	r4, [r6, #0]
    4bc2:	4618      	mov	r0, r3
    4bc4:	b005      	add	sp, #20
    4bc6:	e8bd 8ff0 	ldmia.w	sp!, {r4, r5, r6, r7, r8, r9, sl, fp, pc}
    4bca:	bf00      	nop
    4bcc:	1000035c 	.word	0x1000035c
    4bd0:	10000364 	.word	0x10000364
    4bd4:	10000dac 	.word	0x10000dac
    4bd8:	10000354 	.word	0x10000354
    4bdc:	10000b34 	.word	0x10000b34
    4be0:	10000b54 	.word	0x10000b54

00004be4 <lcdPrint>:
    4be4:	b570      	push	{r4, r5, r6, lr}
    4be6:	4c0d      	ldr	r4, [pc, #52]	; (4c1c <lcdPrint+0x38>)
    4be8:	4d0d      	ldr	r5, [pc, #52]	; (4c20 <lcdPrint+0x3c>)
    4bea:	6823      	ldr	r3, [r4, #0]
    4bec:	4606      	mov	r6, r0
    4bee:	7859      	ldrb	r1, [r3, #1]
    4bf0:	682b      	ldr	r3, [r5, #0]
    4bf2:	18c9      	adds	r1, r1, r3
    4bf4:	2944      	cmp	r1, #68	; 0x44
    4bf6:	dd09      	ble.n	4c0c <lcdPrint+0x28>
    4bf8:	2000      	movs	r0, #0
    4bfa:	3944      	subs	r1, #68	; 0x44
    4bfc:	4602      	mov	r2, r0
    4bfe:	f7ff fb79 	bl	42f4 <lcdShift>
    4c02:	6823      	ldr	r3, [r4, #0]
    4c04:	785b      	ldrb	r3, [r3, #1]
    4c06:	f1c3 0344 	rsb	r3, r3, #68	; 0x44
    4c0a:	602b      	str	r3, [r5, #0]
    4c0c:	4c05      	ldr	r4, [pc, #20]	; (4c24 <lcdPrint+0x40>)
    4c0e:	6829      	ldr	r1, [r5, #0]
    4c10:	6820      	ldr	r0, [r4, #0]
    4c12:	4632      	mov	r2, r6
    4c14:	f7ff fe6c 	bl	48f0 <DoString>
    4c18:	6020      	str	r0, [r4, #0]
    4c1a:	bd70      	pop	{r4, r5, r6, pc}
    4c1c:	10000354 	.word	0x10000354
    4c20:	1000036c 	.word	0x1000036c
    4c24:	10000368 	.word	0x10000368

00004c28 <lcdNl>:
    4c28:	4b05      	ldr	r3, [pc, #20]	; (4c40 <lcdNl+0x18>)
    4c2a:	2200      	movs	r2, #0
    4c2c:	601a      	str	r2, [r3, #0]
    4c2e:	4a05      	ldr	r2, [pc, #20]	; (4c44 <lcdNl+0x1c>)
    4c30:	4b05      	ldr	r3, [pc, #20]	; (4c48 <lcdNl+0x20>)
    4c32:	6812      	ldr	r2, [r2, #0]
    4c34:	7851      	ldrb	r1, [r2, #1]
    4c36:	681a      	ldr	r2, [r3, #0]
    4c38:	188a      	adds	r2, r1, r2
    4c3a:	601a      	str	r2, [r3, #0]
    4c3c:	4770      	bx	lr
    4c3e:	bf00      	nop
    4c40:	10000368 	.word	0x10000368
    4c44:	10000354 	.word	0x10000354
    4c48:	1000036c 	.word	0x1000036c

00004c4c <lcdCheckNl>:
    4c4c:	4b03      	ldr	r3, [pc, #12]	; (4c5c <lcdCheckNl+0x10>)
    4c4e:	681b      	ldr	r3, [r3, #0]
    4c50:	2b60      	cmp	r3, #96	; 0x60
    4c52:	dd01      	ble.n	4c58 <lcdCheckNl+0xc>
    4c54:	f7ff bfe8 	b.w	4c28 <lcdNl>
    4c58:	4770      	bx	lr
    4c5a:	bf00      	nop
    4c5c:	10000368 	.word	0x10000368

00004c60 <lcdPrintln>:
    4c60:	b510      	push	{r4, lr}
    4c62:	f7ff ffbf 	bl	4be4 <lcdPrint>
    4c66:	e8bd 4010 	ldmia.w	sp!, {r4, lr}
    4c6a:	f7ff bfdd 	b.w	4c28 <lcdNl>
	...

00004c70 <lcdClear>:
    4c70:	4b03      	ldr	r3, [pc, #12]	; (4c80 <lcdClear+0x10>)
    4c72:	2000      	movs	r0, #0
    4c74:	6018      	str	r0, [r3, #0]
    4c76:	4b03      	ldr	r3, [pc, #12]	; (4c84 <lcdClear+0x14>)
    4c78:	6018      	str	r0, [r3, #0]
    4c7a:	f7ff b97d 	b.w	3f78 <lcdFill>
    4c7e:	bf00      	nop
    4c80:	10000368 	.word	0x10000368
    4c84:	1000036c 	.word	0x1000036c

00004c88 <lcdSetCrsr>:
    4c88:	4b02      	ldr	r3, [pc, #8]	; (4c94 <lcdSetCrsr+0xc>)
    4c8a:	6018      	str	r0, [r3, #0]
    4c8c:	4b02      	ldr	r3, [pc, #8]	; (4c98 <lcdSetCrsr+0x10>)
    4c8e:	6019      	str	r1, [r3, #0]
    4c90:	4770      	bx	lr
    4c92:	bf00      	nop
    4c94:	10000368 	.word	0x10000368
    4c98:	1000036c 	.word	0x1000036c

00004c9c <lcdSetCrsrX>:
    4c9c:	4b01      	ldr	r3, [pc, #4]	; (4ca4 <lcdSetCrsrX+0x8>)
    4c9e:	6018      	str	r0, [r3, #0]
    4ca0:	4770      	bx	lr
    4ca2:	bf00      	nop
    4ca4:	10000368 	.word	0x10000368

00004ca8 <setSystemFont>:
    4ca8:	4801      	ldr	r0, [pc, #4]	; (4cb0 <setSystemFont+0x8>)
    4caa:	f7ff bb59 	b.w	4360 <setIntFont>
    4cae:	bf00      	nop
    4cb0:	00006560 	.word	0x00006560

00004cb4 <lcdGetVisibleLines>:
    4cb4:	b508      	push	{r3, lr}
    4cb6:	f7ff fb7f 	bl	43b8 <getFontHeight>
    4cba:	2344      	movs	r3, #68	; 0x44
    4cbc:	fb93 f0f0 	sdiv	r0, r3, r0
    4cc0:	bd08      	pop	{r3, pc}
	...

00004cc4 <lcdLoadImage>:
    4cc4:	4902      	ldr	r1, [pc, #8]	; (4cd0 <lcdLoadImage+0xc>)
    4cc6:	f44f 7258 	mov.w	r2, #864	; 0x360
    4cca:	f7fd ba2b 	b.w	2124 <readFile>
    4cce:	bf00      	nop
    4cd0:	100007d4 	.word	0x100007d4

00004cd4 <lcdShowAnim>:
    4cd4:	b570      	push	{r4, r5, r6, lr}
    4cd6:	4603      	mov	r3, r0
    4cd8:	b08a      	sub	sp, #40	; 0x28
    4cda:	460d      	mov	r5, r1
    4cdc:	4668      	mov	r0, sp
    4cde:	4619      	mov	r1, r3
    4ce0:	2201      	movs	r2, #1
    4ce2:	f7fc fbe3 	bl	14ac <f_open>
    4ce6:	4604      	mov	r4, r0
    4ce8:	bb50      	cbnz	r0, 4d40 <lcdShowAnim+0x6c>
    4cea:	f7fd fe2d 	bl	2948 <getInputWaitRelease>
    4cee:	e01e      	b.n	4d2e <lcdShowAnim+0x5a>
    4cf0:	4668      	mov	r0, sp
    4cf2:	4917      	ldr	r1, [pc, #92]	; (4d50 <lcdShowAnim+0x7c>)
    4cf4:	f44f 7258 	mov.w	r2, #864	; 0x360
    4cf8:	ab09      	add	r3, sp, #36	; 0x24
    4cfa:	f7fc fcba 	bl	1672 <f_read>
    4cfe:	4606      	mov	r6, r0
    4d00:	bb00      	cbnz	r0, 4d44 <lcdShowAnim+0x70>
    4d02:	9b09      	ldr	r3, [sp, #36]	; 0x24
    4d04:	f5b3 7f58 	cmp.w	r3, #864	; 0x360
    4d08:	d204      	bcs.n	4d14 <lcdShowAnim+0x40>
    4d0a:	4668      	mov	r0, sp
    4d0c:	4631      	mov	r1, r6
    4d0e:	f7fc fe92 	bl	1a36 <f_lseek>
    4d12:	e00c      	b.n	4d2e <lcdShowAnim+0x5a>
    4d14:	f7ff f992 	bl	403c <lcdDisplay>
    4d18:	2d63      	cmp	r5, #99	; 0x63
    4d1a:	d805      	bhi.n	4d28 <lcdShowAnim+0x54>
    4d1c:	4628      	mov	r0, r5
    4d1e:	4631      	mov	r1, r6
    4d20:	f7fe fd04 	bl	372c <delayms_queue_plus>
    4d24:	4604      	mov	r4, r0
    4d26:	e002      	b.n	4d2e <lcdShowAnim+0x5a>
    4d28:	4628      	mov	r0, r5
    4d2a:	f7fd fda1 	bl	2870 <getInputWaitTimeout>
    4d2e:	f7fd fd5b 	bl	27e8 <getInputRaw>
    4d32:	2800      	cmp	r0, #0
    4d34:	d0dc      	beq.n	4cf0 <lcdShowAnim+0x1c>
    4d36:	b13c      	cbz	r4, 4d48 <lcdShowAnim+0x74>
    4d38:	f7fe fce8 	bl	370c <work_queue>
    4d3c:	2000      	movs	r0, #0
    4d3e:	e004      	b.n	4d4a <lcdShowAnim+0x76>
    4d40:	2001      	movs	r0, #1
    4d42:	e002      	b.n	4d4a <lcdShowAnim+0x76>
    4d44:	20ff      	movs	r0, #255	; 0xff
    4d46:	e000      	b.n	4d4a <lcdShowAnim+0x76>
    4d48:	4620      	mov	r0, r4
    4d4a:	b00a      	add	sp, #40	; 0x28
    4d4c:	bd70      	pop	{r4, r5, r6, pc}
    4d4e:	bf00      	nop
    4d50:	100007d4 	.word	0x100007d4

00004d54 <o_matrix_identity>:
    4d54:	f240 33ff 	movw	r3, #1023	; 0x3ff
    4d58:	60c3      	str	r3, [r0, #12]
    4d5a:	6003      	str	r3, [r0, #0]
    4d5c:	2300      	movs	r3, #0
    4d5e:	6143      	str	r3, [r0, #20]
    4d60:	6103      	str	r3, [r0, #16]
    4d62:	6083      	str	r3, [r0, #8]
    4d64:	6043      	str	r3, [r0, #4]
    4d66:	4770      	bx	lr

00004d68 <o_add>:
    4d68:	2841      	cmp	r0, #65	; 0x41
    4d6a:	b5f0      	push	{r4, r5, r6, r7, lr}
    4d6c:	d002      	beq.n	4d74 <o_add+0xc>
    4d6e:	230a      	movs	r3, #10
    4d70:	4359      	muls	r1, r3
    4d72:	435a      	muls	r2, r3
    4d74:	4b15      	ldr	r3, [pc, #84]	; (4dcc <o_add+0x64>)
    4d76:	2841      	cmp	r0, #65	; 0x41
    4d78:	681b      	ldr	r3, [r3, #0]
    4d7a:	8019      	strh	r1, [r3, #0]
    4d7c:	805a      	strh	r2, [r3, #2]
    4d7e:	d016      	beq.n	4dae <o_add+0x46>
    4d80:	b20e      	sxth	r6, r1
    4d82:	6a19      	ldr	r1, [r3, #32]
    4d84:	b215      	sxth	r5, r2
    4d86:	4369      	muls	r1, r5
    4d88:	699a      	ldr	r2, [r3, #24]
    4d8a:	69df      	ldr	r7, [r3, #28]
    4d8c:	fb02 1106 	mla	r1, r2, r6, r1
    4d90:	6a9a      	ldr	r2, [r3, #40]	; 0x28
    4d92:	437e      	muls	r6, r7
    4d94:	1889      	adds	r1, r1, r2
    4d96:	6a5a      	ldr	r2, [r3, #36]	; 0x24
    4d98:	6adf      	ldr	r7, [r3, #44]	; 0x2c
    4d9a:	fb02 6205 	mla	r2, r2, r5, r6
    4d9e:	f240 34ff 	movw	r4, #1023	; 0x3ff
    4da2:	19d2      	adds	r2, r2, r7
    4da4:	fb91 f1f4 	sdiv	r1, r1, r4
    4da8:	fb92 f2f4 	sdiv	r2, r2, r4
    4dac:	e000      	b.n	4db0 <o_add+0x48>
    4dae:	206c      	movs	r0, #108	; 0x6c
    4db0:	685c      	ldr	r4, [r3, #4]
    4db2:	689d      	ldr	r5, [r3, #8]
    4db4:	1c67      	adds	r7, r4, #1
    4db6:	42af      	cmp	r7, r5
    4db8:	da07      	bge.n	4dca <o_add+0x62>
    4dba:	2506      	movs	r5, #6
    4dbc:	4365      	muls	r5, r4
    4dbe:	68de      	ldr	r6, [r3, #12]
    4dc0:	605f      	str	r7, [r3, #4]
    4dc2:	1974      	adds	r4, r6, r5
    4dc4:	7120      	strb	r0, [r4, #4]
    4dc6:	5371      	strh	r1, [r6, r5]
    4dc8:	8062      	strh	r2, [r4, #2]
    4dca:	bdf0      	pop	{r4, r5, r6, r7, pc}
    4dcc:	10000370 	.word	0x10000370

00004dd0 <shader_gray>:
    4dd0:	4610      	mov	r0, r2
    4dd2:	4770      	bx	lr

00004dd4 <insert_sorted>:
    4dd4:	b530      	push	{r4, r5, lr}
    4dd6:	4602      	mov	r2, r0
    4dd8:	2300      	movs	r3, #0
    4dda:	4614      	mov	r4, r2
    4ddc:	f912 5b01 	ldrsb.w	r5, [r2], #1
    4de0:	f115 0f7e 	cmn.w	r5, #126	; 0x7e
    4de4:	d009      	beq.n	4dfa <insert_sorted+0x26>
    4de6:	428d      	cmp	r5, r1
    4de8:	dd09      	ble.n	4dfe <insert_sorted+0x2a>
    4dea:	2206      	movs	r2, #6
    4dec:	e002      	b.n	4df4 <insert_sorted+0x20>
    4dee:	7985      	ldrb	r5, [r0, #6]
    4df0:	3a01      	subs	r2, #1
    4df2:	71c5      	strb	r5, [r0, #7]
    4df4:	3801      	subs	r0, #1
    4df6:	4293      	cmp	r3, r2
    4df8:	dbf9      	blt.n	4dee <insert_sorted+0x1a>
    4dfa:	7021      	strb	r1, [r4, #0]
    4dfc:	bd30      	pop	{r4, r5, pc}
    4dfe:	3301      	adds	r3, #1
    4e00:	2b07      	cmp	r3, #7
    4e02:	d1ea      	bne.n	4dda <insert_sorted+0x6>
    4e04:	bd30      	pop	{r4, r5, pc}

00004e06 <fill_line>:
    4e06:	e92d 4ff0 	stmdb	sp!, {r4, r5, r6, r7, r8, r9, sl, fp, lr}
    4e0a:	461c      	mov	r4, r3
    4e0c:	1a5b      	subs	r3, r3, r1
    4e0e:	b085      	sub	sp, #20
    4e10:	bf54      	ite	pl
    4e12:	f04f 0801 	movpl.w	r8, #1
    4e16:	f04f 38ff 	movmi.w	r8, #4294967295
    4e1a:	1a12      	subs	r2, r2, r0
    4e1c:	9301      	str	r3, [sp, #4]
    4e1e:	ea4f 03c8 	mov.w	r3, r8, lsl #3
    4e22:	ebc8 0303 	rsb	r3, r8, r3
    4e26:	fb02 f208 	mul.w	r2, r2, r8
    4e2a:	9303      	str	r3, [sp, #12]
    4e2c:	9b0e      	ldr	r3, [sp, #56]	; 0x38
    4e2e:	9000      	str	r0, [sp, #0]
    4e30:	eb03 09c1 	add.w	r9, r3, r1, lsl #3
    4e34:	9e0f      	ldr	r6, [sp, #60]	; 0x3c
    4e36:	9d10      	ldr	r5, [sp, #64]	; 0x40
    4e38:	9202      	str	r2, [sp, #8]
    4e3a:	ebc1 0909 	rsb	r9, r1, r9
    4e3e:	460f      	mov	r7, r1
    4e40:	f04f 0a00 	mov.w	sl, #0
    4e44:	e01c      	b.n	4e80 <fill_line+0x7a>
    4e46:	2f43      	cmp	r7, #67	; 0x43
    4e48:	d815      	bhi.n	4e76 <fill_line+0x70>
    4e4a:	682b      	ldr	r3, [r5, #0]
    4e4c:	42bb      	cmp	r3, r7
    4e4e:	d012      	beq.n	4e76 <fill_line+0x70>
    4e50:	9b01      	ldr	r3, [sp, #4]
    4e52:	4648      	mov	r0, r9
    4e54:	fb9a fbf3 	sdiv	fp, sl, r3
    4e58:	9b00      	ldr	r3, [sp, #0]
    4e5a:	449b      	add	fp, r3
    4e5c:	4659      	mov	r1, fp
    4e5e:	f7ff ffb9 	bl	4dd4 <insert_sorted>
    4e62:	6833      	ldr	r3, [r6, #0]
    4e64:	4598      	cmp	r8, r3
    4e66:	d003      	beq.n	4e70 <fill_line+0x6a>
    4e68:	4648      	mov	r0, r9
    4e6a:	4659      	mov	r1, fp
    4e6c:	f7ff ffb2 	bl	4dd4 <insert_sorted>
    4e70:	f8c6 8000 	str.w	r8, [r6]
    4e74:	602f      	str	r7, [r5, #0]
    4e76:	9b02      	ldr	r3, [sp, #8]
    4e78:	4447      	add	r7, r8
    4e7a:	449a      	add	sl, r3
    4e7c:	9b03      	ldr	r3, [sp, #12]
    4e7e:	4499      	add	r9, r3
    4e80:	42a7      	cmp	r7, r4
    4e82:	d1e0      	bne.n	4e46 <fill_line+0x40>
    4e84:	b005      	add	sp, #20
    4e86:	e8bd 8ff0 	ldmia.w	sp!, {r4, r5, r6, r7, r8, r9, sl, fp, pc}

00004e8a <lerp.clone.0>:
    4e8a:	b570      	push	{r4, r5, r6, lr}
    4e8c:	f9bd 5010 	ldrsh.w	r5, [sp, #16]
    4e90:	9c05      	ldr	r4, [sp, #20]
    4e92:	1a5b      	subs	r3, r3, r1
    4e94:	1aad      	subs	r5, r5, r2
    4e96:	4363      	muls	r3, r4
    4e98:	436c      	muls	r4, r5
    4e9a:	f240 36ff 	movw	r6, #1023	; 0x3ff
    4e9e:	fb93 f3f6 	sdiv	r3, r3, r6
    4ea2:	fb94 f6f6 	sdiv	r6, r4, r6
    4ea6:	1859      	adds	r1, r3, r1
    4ea8:	18b2      	adds	r2, r6, r2
    4eaa:	8001      	strh	r1, [r0, #0]
    4eac:	8042      	strh	r2, [r0, #2]
    4eae:	bd70      	pop	{r4, r5, r6, pc}

00004eb0 <o_transform>:
    4eb0:	e92d 4ff0 	stmdb	sp!, {r4, r5, r6, r7, r8, r9, sl, fp, lr}
    4eb4:	4b26      	ldr	r3, [pc, #152]	; (4f50 <o_transform+0xa0>)
    4eb6:	b089      	sub	sp, #36	; 0x24
    4eb8:	681b      	ldr	r3, [r3, #0]
    4eba:	f103 0418 	add.w	r4, r3, #24
    4ebe:	b951      	cbnz	r1, 4ed6 <o_transform+0x26>
    4ec0:	69da      	ldr	r2, [r3, #28]
    4ec2:	6a5d      	ldr	r5, [r3, #36]	; 0x24
    4ec4:	9200      	str	r2, [sp, #0]
    4ec6:	9501      	str	r5, [sp, #4]
    4ec8:	f8d3 8018 	ldr.w	r8, [r3, #24]
    4ecc:	f8d3 b020 	ldr.w	fp, [r3, #32]
    4ed0:	460a      	mov	r2, r1
    4ed2:	460d      	mov	r5, r1
    4ed4:	e006      	b.n	4ee4 <o_transform+0x34>
    4ed6:	4605      	mov	r5, r0
    4ed8:	e031      	b.n	4f3e <o_transform+0x8e>
    4eda:	2a02      	cmp	r2, #2
    4edc:	bf0c      	ite	eq
    4ede:	6925      	ldreq	r5, [r4, #16]
    4ee0:	2500      	movne	r5, #0
    4ee2:	3108      	adds	r1, #8
    4ee4:	1846      	adds	r6, r0, r1
    4ee6:	f8d6 c004 	ldr.w	ip, [r6, #4]
    4eea:	5847      	ldr	r7, [r0, r1]
    4eec:	fb0b fa0c 	mul.w	sl, fp, ip
    4ef0:	fb07 f908 	mul.w	r9, r7, r8
    4ef4:	f240 36ff 	movw	r6, #1023	; 0x3ff
    4ef8:	fb9a faf6 	sdiv	sl, sl, r6
    4efc:	fb99 f9f6 	sdiv	r9, r9, r6
    4f00:	44d1      	add	r9, sl
    4f02:	444d      	add	r5, r9
    4f04:	f10d 0908 	add.w	r9, sp, #8
    4f08:	f849 5001 	str.w	r5, [r9, r1]
    4f0c:	9d01      	ldr	r5, [sp, #4]
    4f0e:	2a02      	cmp	r2, #2
    4f10:	fb0c fc05 	mul.w	ip, ip, r5
    4f14:	9d00      	ldr	r5, [sp, #0]
    4f16:	bf0c      	ite	eq
    4f18:	f8d4 9014 	ldreq.w	r9, [r4, #20]
    4f1c:	f04f 0900 	movne.w	r9, #0
    4f20:	436f      	muls	r7, r5
    4f22:	fb9c fcf6 	sdiv	ip, ip, r6
    4f26:	fb97 f6f6 	sdiv	r6, r7, r6
    4f2a:	4466      	add	r6, ip
    4f2c:	ad02      	add	r5, sp, #8
    4f2e:	3201      	adds	r2, #1
    4f30:	186f      	adds	r7, r5, r1
    4f32:	444e      	add	r6, r9
    4f34:	2a03      	cmp	r2, #3
    4f36:	607e      	str	r6, [r7, #4]
    4f38:	d1cf      	bne.n	4eda <o_transform+0x2a>
    4f3a:	f103 0418 	add.w	r4, r3, #24
    4f3e:	cd0f      	ldmia	r5!, {r0, r1, r2, r3}
    4f40:	c40f      	stmia	r4!, {r0, r1, r2, r3}
    4f42:	e895 0003 	ldmia.w	r5, {r0, r1}
    4f46:	e884 0003 	stmia.w	r4, {r0, r1}
    4f4a:	b009      	add	sp, #36	; 0x24
    4f4c:	e8bd 8ff0 	ldmia.w	sp!, {r4, r5, r6, r7, r8, r9, sl, fp, pc}
    4f50:	10000370 	.word	0x10000370

00004f54 <o_identity>:
    4f54:	4b02      	ldr	r3, [pc, #8]	; (4f60 <o_identity+0xc>)
    4f56:	6818      	ldr	r0, [r3, #0]
    4f58:	3018      	adds	r0, #24
    4f5a:	f7ff befb 	b.w	4d54 <o_matrix_identity>
    4f5e:	bf00      	nop
    4f60:	10000370 	.word	0x10000370

00004f64 <o_set_shader>:
    4f64:	4b02      	ldr	r3, [pc, #8]	; (4f70 <o_set_shader+0xc>)
    4f66:	681b      	ldr	r3, [r3, #0]
    4f68:	6118      	str	r0, [r3, #16]
    4f6a:	6159      	str	r1, [r3, #20]
    4f6c:	4770      	bx	lr
    4f6e:	bf00      	nop
    4f70:	10000370 	.word	0x10000370

00004f74 <o_set_gray>:
    4f74:	4b03      	ldr	r3, [pc, #12]	; (4f84 <o_set_gray+0x10>)
    4f76:	227d      	movs	r2, #125	; 0x7d
    4f78:	681b      	ldr	r3, [r3, #0]
    4f7a:	fb90 f2f2 	sdiv	r2, r0, r2
    4f7e:	615a      	str	r2, [r3, #20]
    4f80:	4770      	bx	lr
    4f82:	bf00      	nop
    4f84:	10000370 	.word	0x10000370

00004f88 <o_path_new>:
    4f88:	4b02      	ldr	r3, [pc, #8]	; (4f94 <o_path_new+0xc>)
    4f8a:	2200      	movs	r2, #0
    4f8c:	681b      	ldr	r3, [r3, #0]
    4f8e:	605a      	str	r2, [r3, #4]
    4f90:	4770      	bx	lr
    4f92:	bf00      	nop
    4f94:	10000370 	.word	0x10000370

00004f98 <o_init>:
    4f98:	4b0c      	ldr	r3, [pc, #48]	; (4fcc <o_init+0x34>)
    4f9a:	b510      	push	{r4, lr}
    4f9c:	6018      	str	r0, [r3, #0]
    4f9e:	f100 0330 	add.w	r3, r0, #48	; 0x30
    4fa2:	60c3      	str	r3, [r0, #12]
    4fa4:	3930      	subs	r1, #48	; 0x30
    4fa6:	2306      	movs	r3, #6
    4fa8:	fbb1 f1f3 	udiv	r1, r1, r3
    4fac:	6081      	str	r1, [r0, #8]
    4fae:	4604      	mov	r4, r0
    4fb0:	f7ff ffea 	bl	4f88 <o_path_new>
    4fb4:	f104 0018 	add.w	r0, r4, #24
    4fb8:	f7ff fecc 	bl	4d54 <o_matrix_identity>
    4fbc:	f44f 707a 	mov.w	r0, #1000	; 0x3e8
    4fc0:	f7ff ffd8 	bl	4f74 <o_set_gray>
    4fc4:	4b02      	ldr	r3, [pc, #8]	; (4fd0 <o_init+0x38>)
    4fc6:	6123      	str	r3, [r4, #16]
    4fc8:	bd10      	pop	{r4, pc}
    4fca:	bf00      	nop
    4fcc:	10000370 	.word	0x10000370
    4fd0:	00004dd1 	.word	0x00004dd1

00004fd4 <o_move_to>:
    4fd4:	4603      	mov	r3, r0
    4fd6:	460a      	mov	r2, r1
    4fd8:	206d      	movs	r0, #109	; 0x6d
    4fda:	4619      	mov	r1, r3
    4fdc:	f7ff bec4 	b.w	4d68 <o_add>

00004fe0 <o_line_to>:
    4fe0:	4603      	mov	r3, r0
    4fe2:	460a      	mov	r2, r1
    4fe4:	206c      	movs	r0, #108	; 0x6c
    4fe6:	4619      	mov	r1, r3
    4fe8:	f7ff bebe 	b.w	4d68 <o_add>

00004fec <o_curve_to>:
    4fec:	e92d 41f0 	stmdb	sp!, {r4, r5, r6, r7, r8, lr}
    4ff0:	4684      	mov	ip, r0
    4ff2:	468e      	mov	lr, r1
    4ff4:	461f      	mov	r7, r3
    4ff6:	4661      	mov	r1, ip
    4ff8:	4614      	mov	r4, r2
    4ffa:	2063      	movs	r0, #99	; 0x63
    4ffc:	4672      	mov	r2, lr
    4ffe:	9e06      	ldr	r6, [sp, #24]
    5000:	9d07      	ldr	r5, [sp, #28]
    5002:	f7ff feb1 	bl	4d68 <o_add>
    5006:	202e      	movs	r0, #46	; 0x2e
    5008:	4621      	mov	r1, r4
    500a:	463a      	mov	r2, r7
    500c:	f7ff feac 	bl	4d68 <o_add>
    5010:	2043      	movs	r0, #67	; 0x43
    5012:	4631      	mov	r1, r6
    5014:	462a      	mov	r2, r5
    5016:	e8bd 41f0 	ldmia.w	sp!, {r4, r5, r6, r7, r8, lr}
    501a:	f7ff bea5 	b.w	4d68 <o_add>
	...

00005020 <o_fill>:
    5020:	4b94      	ldr	r3, [pc, #592]	; (5274 <o_fill+0x254>)
    5022:	e92d 4ff0 	stmdb	sp!, {r4, r5, r6, r7, r8, r9, sl, fp, lr}
    5026:	6819      	ldr	r1, [r3, #0]
    5028:	f5ad 7d0d 	sub.w	sp, sp, #564	; 0x234
    502c:	684a      	ldr	r2, [r1, #4]
    502e:	2a00      	cmp	r2, #0
    5030:	f340 811c 	ble.w	526c <o_fill+0x24c>
    5034:	f04f 33ff 	mov.w	r3, #4294967295
    5038:	938b      	str	r3, [sp, #556]	; 0x22c
    503a:	18db      	adds	r3, r3, r3
    503c:	938a      	str	r3, [sp, #552]	; 0x228
    503e:	a87e      	add	r0, sp, #504	; 0x1f8
    5040:	ab07      	add	r3, sp, #28
    5042:	2282      	movs	r2, #130	; 0x82
    5044:	701a      	strb	r2, [r3, #0]
    5046:	705a      	strb	r2, [r3, #1]
    5048:	709a      	strb	r2, [r3, #2]
    504a:	70da      	strb	r2, [r3, #3]
    504c:	711a      	strb	r2, [r3, #4]
    504e:	715a      	strb	r2, [r3, #5]
    5050:	719a      	strb	r2, [r3, #6]
    5052:	3307      	adds	r3, #7
    5054:	4283      	cmp	r3, r0
    5056:	d1f4      	bne.n	5042 <o_fill+0x22>
    5058:	68cc      	ldr	r4, [r1, #12]
    505a:	230a      	movs	r3, #10
    505c:	f9b4 6000 	ldrsh.w	r6, [r4]
    5060:	f9b4 7002 	ldrsh.w	r7, [r4, #2]
    5064:	fb96 f6f3 	sdiv	r6, r6, r3
    5068:	fb97 f7f3 	sdiv	r7, r7, r3
    506c:	46bb      	mov	fp, r7
    506e:	46b4      	mov	ip, r6
    5070:	f04f 0a01 	mov.w	sl, #1
    5074:	e0bb      	b.n	51ee <o_fill+0x1ce>
    5076:	7aa3      	ldrb	r3, [r4, #10]
    5078:	2b6c      	cmp	r3, #108	; 0x6c
    507a:	d011      	beq.n	50a0 <o_fill+0x80>
    507c:	2b6d      	cmp	r3, #109	; 0x6d
    507e:	d003      	beq.n	5088 <o_fill+0x68>
    5080:	2b43      	cmp	r3, #67	; 0x43
    5082:	f040 80b1 	bne.w	51e8 <o_fill+0x1c8>
    5086:	e035      	b.n	50f4 <o_fill+0xd4>
    5088:	f9b4 6006 	ldrsh.w	r6, [r4, #6]
    508c:	f9b4 7008 	ldrsh.w	r7, [r4, #8]
    5090:	230a      	movs	r3, #10
    5092:	fb96 f6f3 	sdiv	r6, r6, r3
    5096:	fb97 f7f3 	sdiv	r7, r7, r3
    509a:	46bb      	mov	fp, r7
    509c:	46b4      	mov	ip, r6
    509e:	e0a3      	b.n	51e8 <o_fill+0x1c8>
    50a0:	f9b4 9006 	ldrsh.w	r9, [r4, #6]
    50a4:	f9b4 5008 	ldrsh.w	r5, [r4, #8]
    50a8:	230a      	movs	r3, #10
    50aa:	fb99 f9f3 	sdiv	r9, r9, r3
    50ae:	fb95 f5f3 	sdiv	r5, r5, r3
    50b2:	e006      	b.n	50c2 <o_fill+0xa2>
    50b4:	465d      	mov	r5, fp
    50b6:	e003      	b.n	50c0 <o_fill+0xa0>
    50b8:	462f      	mov	r7, r5
    50ba:	469a      	mov	sl, r3
    50bc:	465d      	mov	r5, fp
    50be:	464e      	mov	r6, r9
    50c0:	46e1      	mov	r9, ip
    50c2:	ab07      	add	r3, sp, #28
    50c4:	9300      	str	r3, [sp, #0]
    50c6:	ab8a      	add	r3, sp, #552	; 0x228
    50c8:	9301      	str	r3, [sp, #4]
    50ca:	ab8b      	add	r3, sp, #556	; 0x22c
    50cc:	9302      	str	r3, [sp, #8]
    50ce:	464a      	mov	r2, r9
    50d0:	462b      	mov	r3, r5
    50d2:	4630      	mov	r0, r6
    50d4:	4639      	mov	r1, r7
    50d6:	f8cd c014 	str.w	ip, [sp, #20]
    50da:	f7ff fe94 	bl	4e06 <fill_line>
    50de:	f8d8 2004 	ldr.w	r2, [r8, #4]
    50e2:	f10a 0301 	add.w	r3, sl, #1
    50e6:	4293      	cmp	r3, r2
    50e8:	f8dd c014 	ldr.w	ip, [sp, #20]
    50ec:	d0e4      	beq.n	50b8 <o_fill+0x98>
    50ee:	462f      	mov	r7, r5
    50f0:	464e      	mov	r6, r9
    50f2:	e079      	b.n	51e8 <o_fill+0x1c8>
    50f4:	2500      	movs	r5, #0
    50f6:	f934 0c04 	ldrsh.w	r0, [r4, #-4]
    50fa:	f934 1c0c 	ldrsh.w	r1, [r4, #-12]
    50fe:	f934 2c0a 	ldrsh.w	r2, [r4, #-10]
    5102:	f934 3c06 	ldrsh.w	r3, [r4, #-6]
    5106:	9000      	str	r0, [sp, #0]
    5108:	a886      	add	r0, sp, #536	; 0x218
    510a:	f8cd c014 	str.w	ip, [sp, #20]
    510e:	9501      	str	r5, [sp, #4]
    5110:	f7ff febb 	bl	4e8a <lerp.clone.0>
    5114:	f9b4 0002 	ldrsh.w	r0, [r4, #2]
    5118:	f934 1c06 	ldrsh.w	r1, [r4, #-6]
    511c:	f934 2c04 	ldrsh.w	r2, [r4, #-4]
    5120:	f9b4 3000 	ldrsh.w	r3, [r4]
    5124:	9000      	str	r0, [sp, #0]
    5126:	a884      	add	r0, sp, #528	; 0x210
    5128:	9501      	str	r5, [sp, #4]
    512a:	f7ff feae 	bl	4e8a <lerp.clone.0>
    512e:	f9b4 0008 	ldrsh.w	r0, [r4, #8]
    5132:	f9b4 1000 	ldrsh.w	r1, [r4]
    5136:	f9b4 2002 	ldrsh.w	r2, [r4, #2]
    513a:	f9b4 3006 	ldrsh.w	r3, [r4, #6]
    513e:	9000      	str	r0, [sp, #0]
    5140:	a882      	add	r0, sp, #520	; 0x208
    5142:	9501      	str	r5, [sp, #4]
    5144:	f7ff fea1 	bl	4e8a <lerp.clone.0>
    5148:	f9bd 0212 	ldrsh.w	r0, [sp, #530]	; 0x212
    514c:	f9bd 1218 	ldrsh.w	r1, [sp, #536]	; 0x218
    5150:	f9bd 221a 	ldrsh.w	r2, [sp, #538]	; 0x21a
    5154:	f9bd 3210 	ldrsh.w	r3, [sp, #528]	; 0x210
    5158:	9000      	str	r0, [sp, #0]
    515a:	a880      	add	r0, sp, #512	; 0x200
    515c:	9501      	str	r5, [sp, #4]
    515e:	f7ff fe94 	bl	4e8a <lerp.clone.0>
    5162:	f9bd 020a 	ldrsh.w	r0, [sp, #522]	; 0x20a
    5166:	f9bd 1210 	ldrsh.w	r1, [sp, #528]	; 0x210
    516a:	f9bd 2212 	ldrsh.w	r2, [sp, #530]	; 0x212
    516e:	f9bd 3208 	ldrsh.w	r3, [sp, #520]	; 0x208
    5172:	9000      	str	r0, [sp, #0]
    5174:	a87e      	add	r0, sp, #504	; 0x1f8
    5176:	9501      	str	r5, [sp, #4]
    5178:	f7ff fe87 	bl	4e8a <lerp.clone.0>
    517c:	f9bd 01fa 	ldrsh.w	r0, [sp, #506]	; 0x1fa
    5180:	f9bd 1200 	ldrsh.w	r1, [sp, #512]	; 0x200
    5184:	f9bd 2202 	ldrsh.w	r2, [sp, #514]	; 0x202
    5188:	f9bd 31f8 	ldrsh.w	r3, [sp, #504]	; 0x1f8
    518c:	9000      	str	r0, [sp, #0]
    518e:	a888      	add	r0, sp, #544	; 0x220
    5190:	9501      	str	r5, [sp, #4]
    5192:	f7ff fe7a 	bl	4e8a <lerp.clone.0>
    5196:	a907      	add	r1, sp, #28
    5198:	f9bd 2220 	ldrsh.w	r2, [sp, #544]	; 0x220
    519c:	f9bd 3222 	ldrsh.w	r3, [sp, #546]	; 0x222
    51a0:	9100      	str	r1, [sp, #0]
    51a2:	a98a      	add	r1, sp, #552	; 0x228
    51a4:	f04f 090a 	mov.w	r9, #10
    51a8:	9101      	str	r1, [sp, #4]
    51aa:	a98b      	add	r1, sp, #556	; 0x22c
    51ac:	9102      	str	r1, [sp, #8]
    51ae:	4630      	mov	r0, r6
    51b0:	4639      	mov	r1, r7
    51b2:	fb93 f3f9 	sdiv	r3, r3, r9
    51b6:	fb92 f2f9 	sdiv	r2, r2, r9
    51ba:	f7ff fe24 	bl	4e06 <fill_line>
    51be:	353f      	adds	r5, #63	; 0x3f
    51c0:	f9bd 6220 	ldrsh.w	r6, [sp, #544]	; 0x220
    51c4:	f9bd 7222 	ldrsh.w	r7, [sp, #546]	; 0x222
    51c8:	f240 432f 	movw	r3, #1071	; 0x42f
    51cc:	429d      	cmp	r5, r3
    51ce:	fb96 f6f9 	sdiv	r6, r6, r9
    51d2:	fb97 f7f9 	sdiv	r7, r7, r9
    51d6:	f8dd c014 	ldr.w	ip, [sp, #20]
    51da:	d18c      	bne.n	50f6 <o_fill+0xd6>
    51dc:	f8d8 3004 	ldr.w	r3, [r8, #4]
    51e0:	f5b3 6f86 	cmp.w	r3, #1072	; 0x430
    51e4:	f43f af66 	beq.w	50b4 <o_fill+0x94>
    51e8:	f10a 0a01 	add.w	sl, sl, #1
    51ec:	3406      	adds	r4, #6
    51ee:	4a21      	ldr	r2, [pc, #132]	; (5274 <o_fill+0x254>)
    51f0:	f8d2 8000 	ldr.w	r8, [r2]
    51f4:	f8d8 3004 	ldr.w	r3, [r8, #4]
    51f8:	459a      	cmp	sl, r3
    51fa:	f6ff af3c 	blt.w	5076 <o_fill+0x56>
    51fe:	2400      	movs	r4, #0
    5200:	e02e      	b.n	5260 <o_fill+0x240>
    5202:	f996 5000 	ldrsb.w	r5, [r6]
    5206:	f115 0f7d 	cmn.w	r5, #125	; 0x7d
    520a:	db22      	blt.n	5252 <o_fill+0x232>
    520c:	4a19      	ldr	r2, [pc, #100]	; (5274 <o_fill+0x254>)
    520e:	f996 a001 	ldrsb.w	sl, [r6, #1]
    5212:	6813      	ldr	r3, [r2, #0]
    5214:	2d60      	cmp	r5, #96	; 0x60
    5216:	bfa8      	it	ge
    5218:	2560      	movge	r5, #96	; 0x60
    521a:	f1ba 0f60 	cmp.w	sl, #96	; 0x60
    521e:	bfa8      	it	ge
    5220:	f04f 0a60 	movge.w	sl, #96	; 0x60
    5224:	f8d3 9010 	ldr.w	r9, [r3, #16]
    5228:	f8d3 8014 	ldr.w	r8, [r3, #20]
    522c:	ea25 75e5 	bic.w	r5, r5, r5, asr #31
    5230:	ea2a 7aea 	bic.w	sl, sl, sl, asr #31
    5234:	e00b      	b.n	524e <o_fill+0x22e>
    5236:	4628      	mov	r0, r5
    5238:	4621      	mov	r1, r4
    523a:	4642      	mov	r2, r8
    523c:	47c8      	blx	r9
    523e:	1e02      	subs	r2, r0, #0
    5240:	bf18      	it	ne
    5242:	2201      	movne	r2, #1
    5244:	b2e8      	uxtb	r0, r5
    5246:	b2e1      	uxtb	r1, r4
    5248:	f7fe fe9e 	bl	3f88 <lcdSetPixel>
    524c:	3501      	adds	r5, #1
    524e:	4555      	cmp	r5, sl
    5250:	dbf1      	blt.n	5236 <o_fill+0x216>
    5252:	3702      	adds	r7, #2
    5254:	3602      	adds	r6, #2
    5256:	2f06      	cmp	r7, #6
    5258:	d1d3      	bne.n	5202 <o_fill+0x1e2>
    525a:	3401      	adds	r4, #1
    525c:	2c44      	cmp	r4, #68	; 0x44
    525e:	d005      	beq.n	526c <o_fill+0x24c>
    5260:	ab07      	add	r3, sp, #28
    5262:	eb03 06c4 	add.w	r6, r3, r4, lsl #3
    5266:	1b36      	subs	r6, r6, r4
    5268:	2700      	movs	r7, #0
    526a:	e7ca      	b.n	5202 <o_fill+0x1e2>
    526c:	f50d 7d0d 	add.w	sp, sp, #564	; 0x234
    5270:	e8bd 8ff0 	ldmia.w	sp!, {r4, r5, r6, r7, r8, r9, sl, fp, pc}
    5274:	10000370 	.word	0x10000370

00005278 <o_close>:
    5278:	4b0e      	ldr	r3, [pc, #56]	; (52b4 <o_close+0x3c>)
    527a:	681b      	ldr	r3, [r3, #0]
    527c:	685a      	ldr	r2, [r3, #4]
    527e:	b1ba      	cbz	r2, 52b0 <o_close+0x38>
    5280:	68db      	ldr	r3, [r3, #12]
    5282:	2106      	movs	r1, #6
    5284:	fb01 3302 	mla	r3, r1, r2, r3
    5288:	e001      	b.n	528e <o_close+0x16>
    528a:	3b06      	subs	r3, #6
    528c:	3a01      	subs	r2, #1
    528e:	2a00      	cmp	r2, #0
    5290:	dd03      	ble.n	529a <o_close+0x22>
    5292:	7919      	ldrb	r1, [r3, #4]
    5294:	296d      	cmp	r1, #109	; 0x6d
    5296:	d1f8      	bne.n	528a <o_close+0x12>
    5298:	e000      	b.n	529c <o_close+0x24>
    529a:	d109      	bne.n	52b0 <o_close+0x38>
    529c:	791a      	ldrb	r2, [r3, #4]
    529e:	2a6d      	cmp	r2, #109	; 0x6d
    52a0:	d106      	bne.n	52b0 <o_close+0x38>
    52a2:	f9b3 1000 	ldrsh.w	r1, [r3]
    52a6:	f9b3 2002 	ldrsh.w	r2, [r3, #2]
    52aa:	2041      	movs	r0, #65	; 0x41
    52ac:	f7ff bd5c 	b.w	4d68 <o_add>
    52b0:	4770      	bx	lr
    52b2:	bf00      	nop
    52b4:	10000370 	.word	0x10000370

000052b8 <adcInit>:
    52b8:	4b1a      	ldr	r3, [pc, #104]	; (5324 <adcInit+0x6c>)
    52ba:	681a      	ldr	r2, [r3, #0]
    52bc:	f022 0210 	bic.w	r2, r2, #16
    52c0:	601a      	str	r2, [r3, #0]
    52c2:	4b19      	ldr	r3, [pc, #100]	; (5328 <adcInit+0x70>)
    52c4:	681a      	ldr	r2, [r3, #0]
    52c6:	f442 5200 	orr.w	r2, r2, #8192	; 0x2000
    52ca:	601a      	str	r2, [r3, #0]
    52cc:	4b17      	ldr	r3, [pc, #92]	; (532c <adcInit+0x74>)
    52ce:	681a      	ldr	r2, [r3, #0]
    52d0:	f022 029f 	bic.w	r2, r2, #159	; 0x9f
    52d4:	601a      	str	r2, [r3, #0]
    52d6:	681a      	ldr	r2, [r3, #0]
    52d8:	601a      	str	r2, [r3, #0]
    52da:	685a      	ldr	r2, [r3, #4]
    52dc:	f022 029f 	bic.w	r2, r2, #159	; 0x9f
    52e0:	605a      	str	r2, [r3, #4]
    52e2:	685a      	ldr	r2, [r3, #4]
    52e4:	605a      	str	r2, [r3, #4]
    52e6:	689a      	ldr	r2, [r3, #8]
    52e8:	f022 029f 	bic.w	r2, r2, #159	; 0x9f
    52ec:	609a      	str	r2, [r3, #8]
    52ee:	689a      	ldr	r2, [r3, #8]
    52f0:	609a      	str	r2, [r3, #8]
    52f2:	68da      	ldr	r2, [r3, #12]
    52f4:	f022 029f 	bic.w	r2, r2, #159	; 0x9f
    52f8:	60da      	str	r2, [r3, #12]
    52fa:	68da      	ldr	r2, [r3, #12]
    52fc:	60da      	str	r2, [r3, #12]
    52fe:	4b0c      	ldr	r3, [pc, #48]	; (5330 <adcInit+0x78>)
    5300:	2248      	movs	r2, #72	; 0x48
    5302:	681b      	ldr	r3, [r3, #0]
    5304:	fbb2 f2f3 	udiv	r2, r2, r3
    5308:	3a01      	subs	r2, #1
    530a:	4b0a      	ldr	r3, [pc, #40]	; (5334 <adcInit+0x7c>)
    530c:	0212      	lsls	r2, r2, #8
    530e:	f042 0201 	orr.w	r2, r2, #1
    5312:	601a      	str	r2, [r3, #0]
    5314:	4b08      	ldr	r3, [pc, #32]	; (5338 <adcInit+0x80>)
    5316:	2201      	movs	r2, #1
    5318:	701a      	strb	r2, [r3, #0]
    531a:	4b08      	ldr	r3, [pc, #32]	; (533c <adcInit+0x84>)
    531c:	3a01      	subs	r2, #1
    531e:	701a      	strb	r2, [r3, #0]
    5320:	4770      	bx	lr
    5322:	bf00      	nop
    5324:	40048238 	.word	0x40048238
    5328:	40048080 	.word	0x40048080
    532c:	40044074 	.word	0x40044074
    5330:	40048078 	.word	0x40048078
    5334:	4001c000 	.word	0x4001c000
    5338:	10000375 	.word	0x10000375
    533c:	10000376 	.word	0x10000376

00005340 <adcRead>:
    5340:	b538      	push	{r3, r4, r5, lr}
    5342:	4d22      	ldr	r5, [pc, #136]	; (53cc <adcRead+0x8c>)
    5344:	2301      	movs	r3, #1
    5346:	702b      	strb	r3, [r5, #0]
    5348:	4b21      	ldr	r3, [pc, #132]	; (53d0 <adcRead+0x90>)
    534a:	4604      	mov	r4, r0
    534c:	781b      	ldrb	r3, [r3, #0]
    534e:	b90b      	cbnz	r3, 5354 <adcRead+0x14>
    5350:	f7ff ffb2 	bl	52b8 <adcInit>
    5354:	4b1f      	ldr	r3, [pc, #124]	; (53d4 <adcRead+0x94>)
    5356:	2c07      	cmp	r4, #7
    5358:	bf88      	it	hi
    535a:	2400      	movhi	r4, #0
    535c:	681a      	ldr	r2, [r3, #0]
    535e:	f022 02ff 	bic.w	r2, r2, #255	; 0xff
    5362:	601a      	str	r2, [r3, #0]
    5364:	2201      	movs	r2, #1
    5366:	40a2      	lsls	r2, r4
    5368:	6819      	ldr	r1, [r3, #0]
    536a:	f041 7180 	orr.w	r1, r1, #16777216	; 0x1000000
    536e:	ea41 0202 	orr.w	r2, r1, r2
    5372:	601a      	str	r2, [r3, #0]
    5374:	1e63      	subs	r3, r4, #1
    5376:	2b06      	cmp	r3, #6
    5378:	d805      	bhi.n	5386 <adcRead+0x46>
    537a:	e8df f003 	tbb	[pc, r3]
    537e:	0806      	.short	0x0806
    5380:	100e0c0a 	.word	0x100e0c0a
    5384:	12          	.byte	0x12
    5385:	00          	.byte	0x00
    5386:	4b14      	ldr	r3, [pc, #80]	; (53d8 <adcRead+0x98>)
    5388:	e00c      	b.n	53a4 <adcRead+0x64>
    538a:	4b14      	ldr	r3, [pc, #80]	; (53dc <adcRead+0x9c>)
    538c:	e00a      	b.n	53a4 <adcRead+0x64>
    538e:	4b14      	ldr	r3, [pc, #80]	; (53e0 <adcRead+0xa0>)
    5390:	e008      	b.n	53a4 <adcRead+0x64>
    5392:	4b14      	ldr	r3, [pc, #80]	; (53e4 <adcRead+0xa4>)
    5394:	e006      	b.n	53a4 <adcRead+0x64>
    5396:	4b14      	ldr	r3, [pc, #80]	; (53e8 <adcRead+0xa8>)
    5398:	e004      	b.n	53a4 <adcRead+0x64>
    539a:	4b14      	ldr	r3, [pc, #80]	; (53ec <adcRead+0xac>)
    539c:	e002      	b.n	53a4 <adcRead+0x64>
    539e:	4b14      	ldr	r3, [pc, #80]	; (53f0 <adcRead+0xb0>)
    53a0:	e000      	b.n	53a4 <adcRead+0x64>
    53a2:	4b14      	ldr	r3, [pc, #80]	; (53f4 <adcRead+0xb4>)
    53a4:	681b      	ldr	r3, [r3, #0]
    53a6:	2b00      	cmp	r3, #0
    53a8:	dae4      	bge.n	5374 <adcRead+0x34>
    53aa:	4a0a      	ldr	r2, [pc, #40]	; (53d4 <adcRead+0x94>)
    53ac:	6811      	ldr	r1, [r2, #0]
    53ae:	f021 61e0 	bic.w	r1, r1, #117440512	; 0x7000000
    53b2:	6011      	str	r1, [r2, #0]
    53b4:	f013 4280 	ands.w	r2, r3, #1073741824	; 0x40000000
    53b8:	d003      	beq.n	53c2 <adcRead+0x82>
    53ba:	2300      	movs	r3, #0
    53bc:	702b      	strb	r3, [r5, #0]
    53be:	2001      	movs	r0, #1
    53c0:	bd38      	pop	{r3, r4, r5, pc}
    53c2:	099b      	lsrs	r3, r3, #6
    53c4:	0598      	lsls	r0, r3, #22
    53c6:	0d80      	lsrs	r0, r0, #22
    53c8:	702a      	strb	r2, [r5, #0]
    53ca:	bd38      	pop	{r3, r4, r5, pc}
    53cc:	10000374 	.word	0x10000374
    53d0:	10000375 	.word	0x10000375
    53d4:	4001c000 	.word	0x4001c000
    53d8:	4001c010 	.word	0x4001c010
    53dc:	4001c014 	.word	0x4001c014
    53e0:	4001c018 	.word	0x4001c018
    53e4:	4001c01c 	.word	0x4001c01c
    53e8:	4001c020 	.word	0x4001c020
    53ec:	4001c024 	.word	0x4001c024
    53f0:	4001c028 	.word	0x4001c028
    53f4:	4001c02c 	.word	0x4001c02c

000053f8 <cpuPllSetup>:
    53f8:	4b29      	ldr	r3, [pc, #164]	; (54a0 <cpuPllSetup+0xa8>)
    53fa:	681a      	ldr	r2, [r3, #0]
    53fc:	f022 0220 	bic.w	r2, r2, #32
    5400:	601a      	str	r2, [r3, #0]
    5402:	4b28      	ldr	r3, [pc, #160]	; (54a4 <cpuPllSetup+0xac>)
    5404:	2200      	movs	r2, #0
    5406:	601a      	str	r2, [r3, #0]
    5408:	23c8      	movs	r3, #200	; 0xc8
    540a:	bf00      	nop
    540c:	3b01      	subs	r3, #1
    540e:	d1fc      	bne.n	540a <cpuPllSetup+0x12>
    5410:	4a25      	ldr	r2, [pc, #148]	; (54a8 <cpuPllSetup+0xb0>)
    5412:	2101      	movs	r1, #1
    5414:	6011      	str	r1, [r2, #0]
    5416:	6051      	str	r1, [r2, #4]
    5418:	6053      	str	r3, [r2, #4]
    541a:	6051      	str	r1, [r2, #4]
    541c:	4b23      	ldr	r3, [pc, #140]	; (54ac <cpuPllSetup+0xb4>)
    541e:	681b      	ldr	r3, [r3, #0]
    5420:	f013 0f01 	tst.w	r3, #1
    5424:	d0fa      	beq.n	541c <cpuPllSetup+0x24>
    5426:	3801      	subs	r0, #1
    5428:	4b21      	ldr	r3, [pc, #132]	; (54b0 <cpuPllSetup+0xb8>)
    542a:	2804      	cmp	r0, #4
    542c:	d80e      	bhi.n	544c <cpuPllSetup+0x54>
    542e:	e8df f000 	tbb	[pc, r0]
    5432:	0503      	.short	0x0503
    5434:	0907      	.short	0x0907
    5436:	0b          	.byte	0x0b
    5437:	00          	.byte	0x00
    5438:	2221      	movs	r2, #33	; 0x21
    543a:	e008      	b.n	544e <cpuPllSetup+0x56>
    543c:	2222      	movs	r2, #34	; 0x22
    543e:	e006      	b.n	544e <cpuPllSetup+0x56>
    5440:	2223      	movs	r2, #35	; 0x23
    5442:	e004      	b.n	544e <cpuPllSetup+0x56>
    5444:	2224      	movs	r2, #36	; 0x24
    5446:	e002      	b.n	544e <cpuPllSetup+0x56>
    5448:	2225      	movs	r2, #37	; 0x25
    544a:	e000      	b.n	544e <cpuPllSetup+0x56>
    544c:	2220      	movs	r2, #32
    544e:	601a      	str	r2, [r3, #0]
    5450:	4b13      	ldr	r3, [pc, #76]	; (54a0 <cpuPllSetup+0xa8>)
    5452:	681a      	ldr	r2, [r3, #0]
    5454:	f022 0280 	bic.w	r2, r2, #128	; 0x80
    5458:	601a      	str	r2, [r3, #0]
    545a:	4b16      	ldr	r3, [pc, #88]	; (54b4 <cpuPllSetup+0xbc>)
    545c:	681b      	ldr	r3, [r3, #0]
    545e:	f013 0f01 	tst.w	r3, #1
    5462:	d0fa      	beq.n	545a <cpuPllSetup+0x62>
    5464:	4b14      	ldr	r3, [pc, #80]	; (54b8 <cpuPllSetup+0xc0>)
    5466:	2203      	movs	r2, #3
    5468:	601a      	str	r2, [r3, #0]
    546a:	2100      	movs	r1, #0
    546c:	3a02      	subs	r2, #2
    546e:	605a      	str	r2, [r3, #4]
    5470:	6059      	str	r1, [r3, #4]
    5472:	605a      	str	r2, [r3, #4]
    5474:	4b11      	ldr	r3, [pc, #68]	; (54bc <cpuPllSetup+0xc4>)
    5476:	681b      	ldr	r3, [r3, #0]
    5478:	f013 0f01 	tst.w	r3, #1
    547c:	d0fa      	beq.n	5474 <cpuPllSetup+0x7c>
    547e:	4b08      	ldr	r3, [pc, #32]	; (54a0 <cpuPllSetup+0xa8>)
    5480:	681a      	ldr	r2, [r3, #0]
    5482:	f442 6280 	orr.w	r2, r2, #1024	; 0x400
    5486:	601a      	str	r2, [r3, #0]
    5488:	681a      	ldr	r2, [r3, #0]
    548a:	f442 7280 	orr.w	r2, r2, #256	; 0x100
    548e:	601a      	str	r2, [r3, #0]
    5490:	4b0b      	ldr	r3, [pc, #44]	; (54c0 <cpuPllSetup+0xc8>)
    5492:	2201      	movs	r2, #1
    5494:	601a      	str	r2, [r3, #0]
    5496:	689a      	ldr	r2, [r3, #8]
    5498:	f442 3280 	orr.w	r2, r2, #65536	; 0x10000
    549c:	609a      	str	r2, [r3, #8]
    549e:	4770      	bx	lr
    54a0:	40048238 	.word	0x40048238
    54a4:	40048020 	.word	0x40048020
    54a8:	40048040 	.word	0x40048040
    54ac:	40048044 	.word	0x40048044
    54b0:	40048008 	.word	0x40048008
    54b4:	4004800c 	.word	0x4004800c
    54b8:	40048070 	.word	0x40048070
    54bc:	40048074 	.word	0x40048074
    54c0:	40048078 	.word	0x40048078

000054c4 <cpuInit>:
    54c4:	b510      	push	{r4, lr}
    54c6:	f000 f835 	bl	5534 <gpioInit>
    54ca:	4a10      	ldr	r2, [pc, #64]	; (550c <cpuInit+0x48>)
    54cc:	2005      	movs	r0, #5
    54ce:	6813      	ldr	r3, [r2, #0]
    54d0:	f423 637e 	bic.w	r3, r3, #4064	; 0xfe0
    54d4:	f023 031f 	bic.w	r3, r3, #31
    54d8:	6013      	str	r3, [r2, #0]
    54da:	4a0d      	ldr	r2, [pc, #52]	; (5510 <cpuInit+0x4c>)
    54dc:	6813      	ldr	r3, [r2, #0]
    54de:	f423 637e 	bic.w	r3, r3, #4064	; 0xfe0
    54e2:	f023 031f 	bic.w	r3, r3, #31
    54e6:	6013      	str	r3, [r2, #0]
    54e8:	4a0a      	ldr	r2, [pc, #40]	; (5514 <cpuInit+0x50>)
    54ea:	6813      	ldr	r3, [r2, #0]
    54ec:	f423 637e 	bic.w	r3, r3, #4064	; 0xfe0
    54f0:	f023 031f 	bic.w	r3, r3, #31
    54f4:	6013      	str	r3, [r2, #0]
    54f6:	4a08      	ldr	r2, [pc, #32]	; (5518 <cpuInit+0x54>)
    54f8:	6813      	ldr	r3, [r2, #0]
    54fa:	f423 637e 	bic.w	r3, r3, #4064	; 0xfe0
    54fe:	f023 031f 	bic.w	r3, r3, #31
    5502:	6013      	str	r3, [r2, #0]
    5504:	e8bd 4010 	ldmia.w	sp!, {r4, lr}
    5508:	f7ff bf76 	b.w	53f8 <cpuPllSetup>
    550c:	50008000 	.word	0x50008000
    5510:	50018000 	.word	0x50018000
    5514:	50028000 	.word	0x50028000
    5518:	50038000 	.word	0x50038000

0000551c <NVIC_EnableIRQ>:
    551c:	0942      	lsrs	r2, r0, #5
    551e:	2301      	movs	r3, #1
    5520:	f000 001f 	and.w	r0, r0, #31
    5524:	fa13 f000 	lsls.w	r0, r3, r0
    5528:	4b01      	ldr	r3, [pc, #4]	; (5530 <NVIC_EnableIRQ+0x14>)
    552a:	f843 0022 	str.w	r0, [r3, r2, lsl #2]
    552e:	4770      	bx	lr
    5530:	e000e100 	.word	0xe000e100

00005534 <gpioInit>:
    5534:	b508      	push	{r3, lr}
    5536:	4b0a      	ldr	r3, [pc, #40]	; (5560 <gpioInit+0x2c>)
    5538:	2038      	movs	r0, #56	; 0x38
    553a:	681a      	ldr	r2, [r3, #0]
    553c:	f042 0240 	orr.w	r2, r2, #64	; 0x40
    5540:	601a      	str	r2, [r3, #0]
    5542:	f7ff ffeb 	bl	551c <NVIC_EnableIRQ>
    5546:	2037      	movs	r0, #55	; 0x37
    5548:	f7ff ffe8 	bl	551c <NVIC_EnableIRQ>
    554c:	2036      	movs	r0, #54	; 0x36
    554e:	f7ff ffe5 	bl	551c <NVIC_EnableIRQ>
    5552:	2035      	movs	r0, #53	; 0x35
    5554:	f7ff ffe2 	bl	551c <NVIC_EnableIRQ>
    5558:	4b02      	ldr	r3, [pc, #8]	; (5564 <gpioInit+0x30>)
    555a:	2201      	movs	r2, #1
    555c:	701a      	strb	r2, [r3, #0]
    555e:	bd08      	pop	{r3, pc}
    5560:	40048080 	.word	0x40048080
    5564:	10000377 	.word	0x10000377

00005568 <gpioSetDir>:
    5568:	4b0f      	ldr	r3, [pc, #60]	; (55a8 <gpioSetDir+0x40>)
    556a:	b570      	push	{r4, r5, r6, lr}
    556c:	781b      	ldrb	r3, [r3, #0]
    556e:	4604      	mov	r4, r0
    5570:	460d      	mov	r5, r1
    5572:	4616      	mov	r6, r2
    5574:	b90b      	cbnz	r3, 557a <gpioSetDir+0x12>
    5576:	f7ff ffdd 	bl	5534 <gpioInit>
    557a:	2c03      	cmp	r4, #3
    557c:	bf96      	itet	ls
    557e:	4b0b      	ldrls	r3, [pc, #44]	; (55ac <gpioSetDir+0x44>)
    5580:	4b0b      	ldrhi	r3, [pc, #44]	; (55b0 <gpioSetDir+0x48>)
    5582:	f853 3024 	ldrls.w	r3, [r3, r4, lsl #2]
    5586:	2e01      	cmp	r6, #1
    5588:	d105      	bne.n	5596 <gpioSetDir+0x2e>
    558a:	fa16 f505 	lsls.w	r5, r6, r5
    558e:	681a      	ldr	r2, [r3, #0]
    5590:	ea42 0505 	orr.w	r5, r2, r5
    5594:	e005      	b.n	55a2 <gpioSetDir+0x3a>
    5596:	2101      	movs	r1, #1
    5598:	fa11 f505 	lsls.w	r5, r1, r5
    559c:	681a      	ldr	r2, [r3, #0]
    559e:	ea22 0505 	bic.w	r5, r2, r5
    55a2:	601d      	str	r5, [r3, #0]
    55a4:	681b      	ldr	r3, [r3, #0]
    55a6:	bd70      	pop	{r4, r5, r6, pc}
    55a8:	10000377 	.word	0x10000377
    55ac:	00006570 	.word	0x00006570
    55b0:	50008000 	.word	0x50008000

000055b4 <gpioGetValue>:
    55b4:	b538      	push	{r3, r4, r5, lr}
    55b6:	4b0f      	ldr	r3, [pc, #60]	; (55f4 <gpioGetValue+0x40>)
    55b8:	4604      	mov	r4, r0
    55ba:	781b      	ldrb	r3, [r3, #0]
    55bc:	460d      	mov	r5, r1
    55be:	b90b      	cbnz	r3, 55c4 <gpioGetValue+0x10>
    55c0:	f7ff ffb8 	bl	5534 <gpioInit>
    55c4:	2c03      	cmp	r4, #3
    55c6:	d813      	bhi.n	55f0 <gpioGetValue+0x3c>
    55c8:	e8df f004 	tbb	[pc, r4]
    55cc:	08060402 	.word	0x08060402
    55d0:	4b09      	ldr	r3, [pc, #36]	; (55f8 <gpioGetValue+0x44>)
    55d2:	e004      	b.n	55de <gpioGetValue+0x2a>
    55d4:	4b09      	ldr	r3, [pc, #36]	; (55fc <gpioGetValue+0x48>)
    55d6:	e002      	b.n	55de <gpioGetValue+0x2a>
    55d8:	4b09      	ldr	r3, [pc, #36]	; (5600 <gpioGetValue+0x4c>)
    55da:	e000      	b.n	55de <gpioGetValue+0x2a>
    55dc:	4b09      	ldr	r3, [pc, #36]	; (5604 <gpioGetValue+0x50>)
    55de:	2201      	movs	r2, #1
    55e0:	fa12 f505 	lsls.w	r5, r2, r5
    55e4:	681b      	ldr	r3, [r3, #0]
    55e6:	421d      	tst	r5, r3
    55e8:	bf0c      	ite	eq
    55ea:	2000      	moveq	r0, #0
    55ec:	2001      	movne	r0, #1
    55ee:	bd38      	pop	{r3, r4, r5, pc}
    55f0:	2000      	movs	r0, #0
    55f2:	bd38      	pop	{r3, r4, r5, pc}
    55f4:	10000377 	.word	0x10000377
    55f8:	50003ffc 	.word	0x50003ffc
    55fc:	50013ffc 	.word	0x50013ffc
    5600:	50023ffc 	.word	0x50023ffc
    5604:	50033ffc 	.word	0x50033ffc

00005608 <gpioSetValue>:
    5608:	4b0f      	ldr	r3, [pc, #60]	; (5648 <gpioSetValue+0x40>)
    560a:	b570      	push	{r4, r5, r6, lr}
    560c:	781b      	ldrb	r3, [r3, #0]
    560e:	4604      	mov	r4, r0
    5610:	460d      	mov	r5, r1
    5612:	4616      	mov	r6, r2
    5614:	b90b      	cbnz	r3, 561a <gpioSetValue+0x12>
    5616:	f7ff ff8d 	bl	5534 <gpioInit>
    561a:	2c03      	cmp	r4, #3
    561c:	bf96      	itet	ls
    561e:	4b0b      	ldrls	r3, [pc, #44]	; (564c <gpioSetValue+0x44>)
    5620:	4b0b      	ldrhi	r3, [pc, #44]	; (5650 <gpioSetValue+0x48>)
    5622:	f853 3024 	ldrls.w	r3, [r3, r4, lsl #2]
    5626:	2e01      	cmp	r6, #1
    5628:	d105      	bne.n	5636 <gpioSetValue+0x2e>
    562a:	fa16 f505 	lsls.w	r5, r6, r5
    562e:	681a      	ldr	r2, [r3, #0]
    5630:	ea42 0505 	orr.w	r5, r2, r5
    5634:	e005      	b.n	5642 <gpioSetValue+0x3a>
    5636:	2101      	movs	r1, #1
    5638:	fa11 f505 	lsls.w	r5, r1, r5
    563c:	681a      	ldr	r2, [r3, #0]
    563e:	ea22 0505 	bic.w	r5, r2, r5
    5642:	601d      	str	r5, [r3, #0]
    5644:	681b      	ldr	r3, [r3, #0]
    5646:	bd70      	pop	{r4, r5, r6, pc}
    5648:	10000377 	.word	0x10000377
    564c:	00006580 	.word	0x00006580
    5650:	50003ffc 	.word	0x50003ffc

00005654 <gpioIntStatus>:
    5654:	b538      	push	{r3, r4, r5, lr}
    5656:	4b0f      	ldr	r3, [pc, #60]	; (5694 <gpioIntStatus+0x40>)
    5658:	4604      	mov	r4, r0
    565a:	781b      	ldrb	r3, [r3, #0]
    565c:	460d      	mov	r5, r1
    565e:	b90b      	cbnz	r3, 5664 <gpioIntStatus+0x10>
    5660:	f7ff ff68 	bl	5534 <gpioInit>
    5664:	2c03      	cmp	r4, #3
    5666:	d813      	bhi.n	5690 <gpioIntStatus+0x3c>
    5668:	e8df f004 	tbb	[pc, r4]
    566c:	08060402 	.word	0x08060402
    5670:	4b09      	ldr	r3, [pc, #36]	; (5698 <gpioIntStatus+0x44>)
    5672:	e004      	b.n	567e <gpioIntStatus+0x2a>
    5674:	4b09      	ldr	r3, [pc, #36]	; (569c <gpioIntStatus+0x48>)
    5676:	e002      	b.n	567e <gpioIntStatus+0x2a>
    5678:	4b09      	ldr	r3, [pc, #36]	; (56a0 <gpioIntStatus+0x4c>)
    567a:	e000      	b.n	567e <gpioIntStatus+0x2a>
    567c:	4b09      	ldr	r3, [pc, #36]	; (56a4 <gpioIntStatus+0x50>)
    567e:	2201      	movs	r2, #1
    5680:	fa12 f505 	lsls.w	r5, r2, r5
    5684:	681b      	ldr	r3, [r3, #0]
    5686:	421d      	tst	r5, r3
    5688:	bf0c      	ite	eq
    568a:	2000      	moveq	r0, #0
    568c:	2001      	movne	r0, #1
    568e:	bd38      	pop	{r3, r4, r5, pc}
    5690:	2000      	movs	r0, #0
    5692:	bd38      	pop	{r3, r4, r5, pc}
    5694:	10000377 	.word	0x10000377
    5698:	50008018 	.word	0x50008018
    569c:	50018018 	.word	0x50018018
    56a0:	50028018 	.word	0x50028018
    56a4:	50038018 	.word	0x50038018

000056a8 <gpioIntClear>:
    56a8:	b538      	push	{r3, r4, r5, lr}
    56aa:	4b10      	ldr	r3, [pc, #64]	; (56ec <gpioIntClear+0x44>)
    56ac:	4604      	mov	r4, r0
    56ae:	781b      	ldrb	r3, [r3, #0]
    56b0:	460d      	mov	r5, r1
    56b2:	b90b      	cbnz	r3, 56b8 <gpioIntClear+0x10>
    56b4:	f7ff ff3e 	bl	5534 <gpioInit>
    56b8:	2c03      	cmp	r4, #3
    56ba:	d816      	bhi.n	56ea <gpioIntClear+0x42>
    56bc:	e8df f004 	tbb	[pc, r4]
    56c0:	0e060402 	.word	0x0e060402
    56c4:	4b0a      	ldr	r3, [pc, #40]	; (56f0 <gpioIntClear+0x48>)
    56c6:	e002      	b.n	56ce <gpioIntClear+0x26>
    56c8:	4b0a      	ldr	r3, [pc, #40]	; (56f4 <gpioIntClear+0x4c>)
    56ca:	e000      	b.n	56ce <gpioIntClear+0x26>
    56cc:	4b0a      	ldr	r3, [pc, #40]	; (56f8 <gpioIntClear+0x50>)
    56ce:	2101      	movs	r1, #1
    56d0:	fa11 f505 	lsls.w	r5, r1, r5
    56d4:	681a      	ldr	r2, [r3, #0]
    56d6:	4315      	orrs	r5, r2
    56d8:	601d      	str	r5, [r3, #0]
    56da:	bd38      	pop	{r3, r4, r5, pc}
    56dc:	2101      	movs	r1, #1
    56de:	fa11 f505 	lsls.w	r5, r1, r5
    56e2:	4b06      	ldr	r3, [pc, #24]	; (56fc <gpioIntClear+0x54>)
    56e4:	681a      	ldr	r2, [r3, #0]
    56e6:	4315      	orrs	r5, r2
    56e8:	601d      	str	r5, [r3, #0]
    56ea:	bd38      	pop	{r3, r4, r5, pc}
    56ec:	10000377 	.word	0x10000377
    56f0:	5000801c 	.word	0x5000801c
    56f4:	5001801c 	.word	0x5001801c
    56f8:	5002801c 	.word	0x5002801c
    56fc:	5003801c 	.word	0x5003801c

00005700 <gpioSetPullup>:
    5700:	b538      	push	{r3, r4, r5, lr}
    5702:	4b08      	ldr	r3, [pc, #32]	; (5724 <gpioSetPullup+0x24>)
    5704:	4604      	mov	r4, r0
    5706:	781b      	ldrb	r3, [r3, #0]
    5708:	460d      	mov	r5, r1
    570a:	b90b      	cbnz	r3, 5710 <gpioSetPullup+0x10>
    570c:	f7ff ff12 	bl	5534 <gpioInit>
    5710:	6823      	ldr	r3, [r4, #0]
    5712:	f023 0318 	bic.w	r3, r3, #24
    5716:	6023      	str	r3, [r4, #0]
    5718:	6823      	ldr	r3, [r4, #0]
    571a:	ea45 0103 	orr.w	r1, r5, r3
    571e:	6021      	str	r1, [r4, #0]
    5720:	bd38      	pop	{r3, r4, r5, pc}
    5722:	bf00      	nop
    5724:	10000377 	.word	0x10000377

00005728 <I2C_IRQHandler>:
    5728:	4b54      	ldr	r3, [pc, #336]	; (587c <I2C_IRQHandler+0x154>)
    572a:	681b      	ldr	r3, [r3, #0]
    572c:	b2db      	uxtb	r3, r3
    572e:	2b30      	cmp	r3, #48	; 0x30
    5730:	d057      	beq.n	57e2 <I2C_IRQHandler+0xba>
    5732:	d80e      	bhi.n	5752 <I2C_IRQHandler+0x2a>
    5734:	2b18      	cmp	r3, #24
    5736:	d037      	beq.n	57a8 <I2C_IRQHandler+0x80>
    5738:	d805      	bhi.n	5746 <I2C_IRQHandler+0x1e>
    573a:	2b08      	cmp	r3, #8
    573c:	d018      	beq.n	5770 <I2C_IRQHandler+0x48>
    573e:	2b10      	cmp	r3, #16
    5740:	f040 8098 	bne.w	5874 <I2C_IRQHandler+0x14c>
    5744:	e023      	b.n	578e <I2C_IRQHandler+0x66>
    5746:	2b20      	cmp	r3, #32
    5748:	d060      	beq.n	580c <I2C_IRQHandler+0xe4>
    574a:	2b28      	cmp	r3, #40	; 0x28
    574c:	f040 8092 	bne.w	5874 <I2C_IRQHandler+0x14c>
    5750:	e02c      	b.n	57ac <I2C_IRQHandler+0x84>
    5752:	2b48      	cmp	r3, #72	; 0x48
    5754:	d05a      	beq.n	580c <I2C_IRQHandler+0xe4>
    5756:	d805      	bhi.n	5764 <I2C_IRQHandler+0x3c>
    5758:	2b38      	cmp	r3, #56	; 0x38
    575a:	d04a      	beq.n	57f2 <I2C_IRQHandler+0xca>
    575c:	2b40      	cmp	r3, #64	; 0x40
    575e:	f040 8089 	bne.w	5874 <I2C_IRQHandler+0x14c>
    5762:	e04c      	b.n	57fe <I2C_IRQHandler+0xd6>
    5764:	2b50      	cmp	r3, #80	; 0x50
    5766:	d05a      	beq.n	581e <I2C_IRQHandler+0xf6>
    5768:	2b58      	cmp	r3, #88	; 0x58
    576a:	f040 8083 	bne.w	5874 <I2C_IRQHandler+0x14c>
    576e:	e06e      	b.n	584e <I2C_IRQHandler+0x126>
    5770:	4b43      	ldr	r3, [pc, #268]	; (5880 <I2C_IRQHandler+0x158>)
    5772:	2200      	movs	r2, #0
    5774:	601a      	str	r2, [r3, #0]
    5776:	681a      	ldr	r2, [r3, #0]
    5778:	4942      	ldr	r1, [pc, #264]	; (5884 <I2C_IRQHandler+0x15c>)
    577a:	5c88      	ldrb	r0, [r1, r2]
    577c:	4942      	ldr	r1, [pc, #264]	; (5888 <I2C_IRQHandler+0x160>)
    577e:	3201      	adds	r2, #1
    5780:	6008      	str	r0, [r1, #0]
    5782:	601a      	str	r2, [r3, #0]
    5784:	4b41      	ldr	r3, [pc, #260]	; (588c <I2C_IRQHandler+0x164>)
    5786:	2228      	movs	r2, #40	; 0x28
    5788:	601a      	str	r2, [r3, #0]
    578a:	3a27      	subs	r2, #39	; 0x27
    578c:	e045      	b.n	581a <I2C_IRQHandler+0xf2>
    578e:	4b40      	ldr	r3, [pc, #256]	; (5890 <I2C_IRQHandler+0x168>)
    5790:	2200      	movs	r2, #0
    5792:	601a      	str	r2, [r3, #0]
    5794:	4b3a      	ldr	r3, [pc, #232]	; (5880 <I2C_IRQHandler+0x158>)
    5796:	493b      	ldr	r1, [pc, #236]	; (5884 <I2C_IRQHandler+0x15c>)
    5798:	681a      	ldr	r2, [r3, #0]
    579a:	5c88      	ldrb	r0, [r1, r2]
    579c:	493a      	ldr	r1, [pc, #232]	; (5888 <I2C_IRQHandler+0x160>)
    579e:	3201      	adds	r2, #1
    57a0:	6008      	str	r0, [r1, #0]
    57a2:	601a      	str	r2, [r3, #0]
    57a4:	2228      	movs	r2, #40	; 0x28
    57a6:	e066      	b.n	5876 <I2C_IRQHandler+0x14e>
    57a8:	4b35      	ldr	r3, [pc, #212]	; (5880 <I2C_IRQHandler+0x158>)
    57aa:	e005      	b.n	57b8 <I2C_IRQHandler+0x90>
    57ac:	4b34      	ldr	r3, [pc, #208]	; (5880 <I2C_IRQHandler+0x158>)
    57ae:	4a39      	ldr	r2, [pc, #228]	; (5894 <I2C_IRQHandler+0x16c>)
    57b0:	6819      	ldr	r1, [r3, #0]
    57b2:	6812      	ldr	r2, [r2, #0]
    57b4:	4291      	cmp	r1, r2
    57b6:	d206      	bcs.n	57c6 <I2C_IRQHandler+0x9e>
    57b8:	681a      	ldr	r2, [r3, #0]
    57ba:	4932      	ldr	r1, [pc, #200]	; (5884 <I2C_IRQHandler+0x15c>)
    57bc:	5c88      	ldrb	r0, [r1, r2]
    57be:	4932      	ldr	r1, [pc, #200]	; (5888 <I2C_IRQHandler+0x160>)
    57c0:	3201      	adds	r2, #1
    57c2:	6008      	str	r0, [r1, #0]
    57c4:	e00b      	b.n	57de <I2C_IRQHandler+0xb6>
    57c6:	4b34      	ldr	r3, [pc, #208]	; (5898 <I2C_IRQHandler+0x170>)
    57c8:	681a      	ldr	r2, [r3, #0]
    57ca:	f04f 4380 	mov.w	r3, #1073741824	; 0x40000000
    57ce:	b10a      	cbz	r2, 57d4 <I2C_IRQHandler+0xac>
    57d0:	2220      	movs	r2, #32
    57d2:	e004      	b.n	57de <I2C_IRQHandler+0xb6>
    57d4:	4a31      	ldr	r2, [pc, #196]	; (589c <I2C_IRQHandler+0x174>)
    57d6:	f240 1101 	movw	r1, #257	; 0x101
    57da:	6011      	str	r1, [r2, #0]
    57dc:	2210      	movs	r2, #16
    57de:	601a      	str	r2, [r3, #0]
    57e0:	e048      	b.n	5874 <I2C_IRQHandler+0x14c>
    57e2:	2210      	movs	r2, #16
    57e4:	f04f 4380 	mov.w	r3, #1073741824	; 0x40000000
    57e8:	601a      	str	r2, [r3, #0]
    57ea:	3a08      	subs	r2, #8
    57ec:	619a      	str	r2, [r3, #24]
    57ee:	32fa      	adds	r2, #250	; 0xfa
    57f0:	e013      	b.n	581a <I2C_IRQHandler+0xf2>
    57f2:	4b2a      	ldr	r3, [pc, #168]	; (589c <I2C_IRQHandler+0x174>)
    57f4:	f44f 7282 	mov.w	r2, #260	; 0x104
    57f8:	601a      	str	r2, [r3, #0]
    57fa:	3afc      	subs	r2, #252	; 0xfc
    57fc:	e03b      	b.n	5876 <I2C_IRQHandler+0x14e>
    57fe:	4b26      	ldr	r3, [pc, #152]	; (5898 <I2C_IRQHandler+0x170>)
    5800:	2204      	movs	r2, #4
    5802:	681b      	ldr	r3, [r3, #0]
    5804:	2b01      	cmp	r3, #1
    5806:	4b21      	ldr	r3, [pc, #132]	; (588c <I2C_IRQHandler+0x164>)
    5808:	d11a      	bne.n	5840 <I2C_IRQHandler+0x118>
    580a:	e01d      	b.n	5848 <I2C_IRQHandler+0x120>
    580c:	2210      	movs	r2, #16
    580e:	f04f 4380 	mov.w	r3, #1073741824	; 0x40000000
    5812:	601a      	str	r2, [r3, #0]
    5814:	3a08      	subs	r2, #8
    5816:	619a      	str	r2, [r3, #24]
    5818:	32fb      	adds	r2, #251	; 0xfb
    581a:	4b20      	ldr	r3, [pc, #128]	; (589c <I2C_IRQHandler+0x174>)
    581c:	e02c      	b.n	5878 <I2C_IRQHandler+0x150>
    581e:	4b1c      	ldr	r3, [pc, #112]	; (5890 <I2C_IRQHandler+0x168>)
    5820:	4919      	ldr	r1, [pc, #100]	; (5888 <I2C_IRQHandler+0x160>)
    5822:	681a      	ldr	r2, [r3, #0]
    5824:	6808      	ldr	r0, [r1, #0]
    5826:	491e      	ldr	r1, [pc, #120]	; (58a0 <I2C_IRQHandler+0x178>)
    5828:	5488      	strb	r0, [r1, r2]
    582a:	3201      	adds	r2, #1
    582c:	601a      	str	r2, [r3, #0]
    582e:	681a      	ldr	r2, [r3, #0]
    5830:	4b19      	ldr	r3, [pc, #100]	; (5898 <I2C_IRQHandler+0x170>)
    5832:	681b      	ldr	r3, [r3, #0]
    5834:	3b01      	subs	r3, #1
    5836:	429a      	cmp	r2, r3
    5838:	4b14      	ldr	r3, [pc, #80]	; (588c <I2C_IRQHandler+0x164>)
    583a:	f04f 0204 	mov.w	r2, #4
    583e:	d203      	bcs.n	5848 <I2C_IRQHandler+0x120>
    5840:	f04f 4180 	mov.w	r1, #1073741824	; 0x40000000
    5844:	600a      	str	r2, [r1, #0]
    5846:	e000      	b.n	584a <I2C_IRQHandler+0x122>
    5848:	601a      	str	r2, [r3, #0]
    584a:	2208      	movs	r2, #8
    584c:	e014      	b.n	5878 <I2C_IRQHandler+0x150>
    584e:	4b10      	ldr	r3, [pc, #64]	; (5890 <I2C_IRQHandler+0x168>)
    5850:	490d      	ldr	r1, [pc, #52]	; (5888 <I2C_IRQHandler+0x160>)
    5852:	681a      	ldr	r2, [r3, #0]
    5854:	6808      	ldr	r0, [r1, #0]
    5856:	4912      	ldr	r1, [pc, #72]	; (58a0 <I2C_IRQHandler+0x178>)
    5858:	5488      	strb	r0, [r1, r2]
    585a:	3201      	adds	r2, #1
    585c:	601a      	str	r2, [r3, #0]
    585e:	4b0f      	ldr	r3, [pc, #60]	; (589c <I2C_IRQHandler+0x174>)
    5860:	f240 1201 	movw	r2, #257	; 0x101
    5864:	601a      	str	r2, [r3, #0]
    5866:	3af1      	subs	r2, #241	; 0xf1
    5868:	f04f 4380 	mov.w	r3, #1073741824	; 0x40000000
    586c:	601a      	str	r2, [r3, #0]
    586e:	3a08      	subs	r2, #8
    5870:	619a      	str	r2, [r3, #24]
    5872:	4770      	bx	lr
    5874:	2208      	movs	r2, #8
    5876:	4b05      	ldr	r3, [pc, #20]	; (588c <I2C_IRQHandler+0x164>)
    5878:	601a      	str	r2, [r3, #0]
    587a:	4770      	bx	lr
    587c:	40000004 	.word	0x40000004
    5880:	10000380 	.word	0x10000380
    5884:	10000dba 	.word	0x10000dba
    5888:	40000008 	.word	0x40000008
    588c:	40000018 	.word	0x40000018
    5890:	10000378 	.word	0x10000378
    5894:	10000dc0 	.word	0x10000dc0
    5898:	10000db0 	.word	0x10000db0
    589c:	1000037c 	.word	0x1000037c
    58a0:	10000db4 	.word	0x10000db4

000058a4 <i2cInit>:
    58a4:	4b1a      	ldr	r3, [pc, #104]	; (5910 <i2cInit+0x6c>)
    58a6:	681a      	ldr	r2, [r3, #0]
    58a8:	f042 0202 	orr.w	r2, r2, #2
    58ac:	601a      	str	r2, [r3, #0]
    58ae:	6fda      	ldr	r2, [r3, #124]	; 0x7c
    58b0:	f042 0220 	orr.w	r2, r2, #32
    58b4:	67da      	str	r2, [r3, #124]	; 0x7c
    58b6:	4b17      	ldr	r3, [pc, #92]	; (5914 <i2cInit+0x70>)
    58b8:	681a      	ldr	r2, [r3, #0]
    58ba:	f422 7240 	bic.w	r2, r2, #768	; 0x300
    58be:	f022 0207 	bic.w	r2, r2, #7
    58c2:	601a      	str	r2, [r3, #0]
    58c4:	681a      	ldr	r2, [r3, #0]
    58c6:	f042 0201 	orr.w	r2, r2, #1
    58ca:	601a      	str	r2, [r3, #0]
    58cc:	685a      	ldr	r2, [r3, #4]
    58ce:	f422 7240 	bic.w	r2, r2, #768	; 0x300
    58d2:	f022 0207 	bic.w	r2, r2, #7
    58d6:	605a      	str	r2, [r3, #4]
    58d8:	685a      	ldr	r2, [r3, #4]
    58da:	f042 0201 	orr.w	r2, r2, #1
    58de:	605a      	str	r2, [r3, #4]
    58e0:	4b0d      	ldr	r3, [pc, #52]	; (5918 <i2cInit+0x74>)
    58e2:	226c      	movs	r2, #108	; 0x6c
    58e4:	601a      	str	r2, [r3, #0]
    58e6:	4a0d      	ldr	r2, [pc, #52]	; (591c <i2cInit+0x78>)
    58e8:	2378      	movs	r3, #120	; 0x78
    58ea:	2802      	cmp	r0, #2
    58ec:	6013      	str	r3, [r2, #0]
    58ee:	f842 3c04 	str.w	r3, [r2, #-4]
    58f2:	d102      	bne.n	58fa <i2cInit+0x56>
    58f4:	4b0a      	ldr	r3, [pc, #40]	; (5920 <i2cInit+0x7c>)
    58f6:	22a0      	movs	r2, #160	; 0xa0
    58f8:	601a      	str	r2, [r3, #0]
    58fa:	4b0a      	ldr	r3, [pc, #40]	; (5924 <i2cInit+0x80>)
    58fc:	f44f 7280 	mov.w	r2, #256	; 0x100
    5900:	605a      	str	r2, [r3, #4]
    5902:	3ac0      	subs	r2, #192	; 0xc0
    5904:	f04f 4380 	mov.w	r3, #1073741824	; 0x40000000
    5908:	601a      	str	r2, [r3, #0]
    590a:	2001      	movs	r0, #1
    590c:	4770      	bx	lr
    590e:	bf00      	nop
    5910:	40048004 	.word	0x40048004
    5914:	40044030 	.word	0x40044030
    5918:	40000018 	.word	0x40000018
    591c:	40000014 	.word	0x40000014
    5920:	4000000c 	.word	0x4000000c
    5924:	e000e100 	.word	0xe000e100

00005928 <i2cEngine>:
    5928:	4917      	ldr	r1, [pc, #92]	; (5988 <i2cEngine+0x60>)
    592a:	4a18      	ldr	r2, [pc, #96]	; (598c <i2cEngine+0x64>)
    592c:	2300      	movs	r3, #0
    592e:	6013      	str	r3, [r2, #0]
    5930:	600b      	str	r3, [r1, #0]
    5932:	4917      	ldr	r1, [pc, #92]	; (5990 <i2cEngine+0x68>)
    5934:	2020      	movs	r0, #32
    5936:	600b      	str	r3, [r1, #0]
    5938:	f04f 4180 	mov.w	r1, #1073741824	; 0x40000000
    593c:	6008      	str	r0, [r1, #0]
    593e:	e000      	b.n	5942 <i2cEngine+0x1a>
    5940:	3301      	adds	r3, #1
    5942:	6811      	ldr	r1, [r2, #0]
    5944:	2901      	cmp	r1, #1
    5946:	d004      	beq.n	5952 <i2cEngine+0x2a>
    5948:	f06f 417f 	mvn.w	r1, #4278190080	; 0xff000000
    594c:	428b      	cmp	r3, r1
    594e:	d1f7      	bne.n	5940 <i2cEngine+0x18>
    5950:	e002      	b.n	5958 <i2cEngine+0x30>
    5952:	4910      	ldr	r1, [pc, #64]	; (5994 <i2cEngine+0x6c>)
    5954:	428b      	cmp	r3, r1
    5956:	d911      	bls.n	597c <i2cEngine+0x54>
    5958:	f04f 4380 	mov.w	r3, #1073741824	; 0x40000000
    595c:	2210      	movs	r2, #16
    595e:	601a      	str	r2, [r3, #0]
    5960:	3a08      	subs	r2, #8
    5962:	619a      	str	r2, [r3, #24]
    5964:	f04f 7380 	mov.w	r3, #16777216	; 0x1000000
    5968:	f04f 4280 	mov.w	r2, #1073741824	; 0x40000000
    596c:	6810      	ldr	r0, [r2, #0]
    596e:	f010 0010 	ands.w	r0, r0, #16
    5972:	d008      	beq.n	5986 <i2cEngine+0x5e>
    5974:	3b01      	subs	r3, #1
    5976:	d1f7      	bne.n	5968 <i2cEngine+0x40>
    5978:	4618      	mov	r0, r3
    597a:	4770      	bx	lr
    597c:	6813      	ldr	r3, [r2, #0]
    597e:	2bff      	cmp	r3, #255	; 0xff
    5980:	d9fc      	bls.n	597c <i2cEngine+0x54>
    5982:	4b02      	ldr	r3, [pc, #8]	; (598c <i2cEngine+0x64>)
    5984:	6818      	ldr	r0, [r3, #0]
    5986:	4770      	bx	lr
    5988:	10000378 	.word	0x10000378
    598c:	1000037c 	.word	0x1000037c
    5990:	10000380 	.word	0x10000380
    5994:	00fffffe 	.word	0x00fffffe

00005998 <iap_entry>:
    5998:	b508      	push	{r3, lr}
    599a:	4b01      	ldr	r3, [pc, #4]	; (59a0 <iap_entry+0x8>)
    599c:	4798      	blx	r3
    599e:	bd08      	pop	{r3, pc}
    59a0:	1fff1ff1 	.word	0x1fff1ff1

000059a4 <iapReadSerialNumber>:
    59a4:	b570      	push	{r4, r5, r6, lr}
    59a6:	4604      	mov	r4, r0
    59a8:	4806      	ldr	r0, [pc, #24]	; (59c4 <iapReadSerialNumber+0x20>)
    59aa:	233a      	movs	r3, #58	; 0x3a
    59ac:	4d06      	ldr	r5, [pc, #24]	; (59c8 <iapReadSerialNumber+0x24>)
    59ae:	6003      	str	r3, [r0, #0]
    59b0:	4905      	ldr	r1, [pc, #20]	; (59c8 <iapReadSerialNumber+0x24>)
    59b2:	4626      	mov	r6, r4
    59b4:	f7ff fff0 	bl	5998 <iap_entry>
    59b8:	cd0f      	ldmia	r5!, {r0, r1, r2, r3}
    59ba:	c60f      	stmia	r6!, {r0, r1, r2, r3}
    59bc:	682a      	ldr	r2, [r5, #0]
    59be:	4620      	mov	r0, r4
    59c0:	6032      	str	r2, [r6, #0]
    59c2:	bd70      	pop	{r4, r5, r6, pc}
    59c4:	10000dc4 	.word	0x10000dc4
    59c8:	10000dd8 	.word	0x10000dd8

000059cc <memset>:
    59cc:	b530      	push	{r4, r5, lr}
    59ce:	040d      	lsls	r5, r1, #16
    59d0:	ea45 6501 	orr.w	r5, r5, r1, lsl #24
    59d4:	430d      	orrs	r5, r1
    59d6:	f010 0f03 	tst.w	r0, #3
    59da:	4603      	mov	r3, r0
    59dc:	ea45 2501 	orr.w	r5, r5, r1, lsl #8
    59e0:	d112      	bne.n	5a08 <memset+0x3c>
    59e2:	2a03      	cmp	r2, #3
    59e4:	d910      	bls.n	5a08 <memset+0x3c>
    59e6:	4604      	mov	r4, r0
    59e8:	4613      	mov	r3, r2
    59ea:	3b04      	subs	r3, #4
    59ec:	2b03      	cmp	r3, #3
    59ee:	f844 5b04 	str.w	r5, [r4], #4
    59f2:	d8fa      	bhi.n	59ea <memset+0x1e>
    59f4:	3a04      	subs	r2, #4
    59f6:	f022 0303 	bic.w	r3, r2, #3
    59fa:	3304      	adds	r3, #4
    59fc:	18c3      	adds	r3, r0, r3
    59fe:	f002 0203 	and.w	r2, r2, #3
    5a02:	e001      	b.n	5a08 <memset+0x3c>
    5a04:	f803 1b01 	strb.w	r1, [r3], #1
    5a08:	3a01      	subs	r2, #1
    5a0a:	d2fb      	bcs.n	5a04 <memset+0x38>
    5a0c:	bd30      	pop	{r4, r5, pc}

00005a0e <memmove>:
    5a0e:	4288      	cmp	r0, r1
    5a10:	b510      	push	{r4, lr}
    5a12:	4603      	mov	r3, r0
    5a14:	d90b      	bls.n	5a2e <memmove+0x20>
    5a16:	1e53      	subs	r3, r2, #1
    5a18:	18c4      	adds	r4, r0, r3
    5a1a:	18c9      	adds	r1, r1, r3
    5a1c:	e004      	b.n	5a28 <memmove+0x1a>
    5a1e:	f811 3901 	ldrb.w	r3, [r1], #-1
    5a22:	3a01      	subs	r2, #1
    5a24:	f804 3901 	strb.w	r3, [r4], #-1
    5a28:	2a00      	cmp	r2, #0
    5a2a:	d1f8      	bne.n	5a1e <memmove+0x10>
    5a2c:	bd10      	pop	{r4, pc}
    5a2e:	d305      	bcc.n	5a3c <memmove+0x2e>
    5a30:	e006      	b.n	5a40 <memmove+0x32>
    5a32:	f811 4b01 	ldrb.w	r4, [r1], #1
    5a36:	3a01      	subs	r2, #1
    5a38:	f803 4b01 	strb.w	r4, [r3], #1
    5a3c:	2a00      	cmp	r2, #0
    5a3e:	d1f8      	bne.n	5a32 <memmove+0x24>
    5a40:	bd10      	pop	{r4, pc}

00005a42 <memcmp>:
    5a42:	b530      	push	{r4, r5, lr}
    5a44:	2300      	movs	r3, #0
    5a46:	e006      	b.n	5a56 <memcmp+0x14>
    5a48:	5cc5      	ldrb	r5, [r0, r3]
    5a4a:	5ccc      	ldrb	r4, [r1, r3]
    5a4c:	42a5      	cmp	r5, r4
    5a4e:	d001      	beq.n	5a54 <memcmp+0x12>
    5a50:	1b28      	subs	r0, r5, r4
    5a52:	bd30      	pop	{r4, r5, pc}
    5a54:	3301      	adds	r3, #1
    5a56:	4293      	cmp	r3, r2
    5a58:	d1f6      	bne.n	5a48 <memcmp+0x6>
    5a5a:	2000      	movs	r0, #0
    5a5c:	bd30      	pop	{r4, r5, pc}

00005a5e <strlen>:
    5a5e:	2300      	movs	r3, #0
    5a60:	e000      	b.n	5a64 <strlen+0x6>
    5a62:	3301      	adds	r3, #1
    5a64:	5cc2      	ldrb	r2, [r0, r3]
    5a66:	2a00      	cmp	r2, #0
    5a68:	d1fb      	bne.n	5a62 <strlen+0x4>
    5a6a:	4618      	mov	r0, r3
    5a6c:	4770      	bx	lr

00005a6e <strcpy>:
    5a6e:	4603      	mov	r3, r0
    5a70:	f811 2b01 	ldrb.w	r2, [r1], #1
    5a74:	f803 2b01 	strb.w	r2, [r3], #1
    5a78:	2a00      	cmp	r2, #0
    5a7a:	d1f9      	bne.n	5a70 <strcpy+0x2>
    5a7c:	4770      	bx	lr

00005a7e <strcmp>:
    5a7e:	e000      	b.n	5a82 <strcmp+0x4>
    5a80:	b13b      	cbz	r3, 5a92 <strcmp+0x14>
    5a82:	f810 3b01 	ldrb.w	r3, [r0], #1
    5a86:	f811 2b01 	ldrb.w	r2, [r1], #1
    5a8a:	4293      	cmp	r3, r2
    5a8c:	d0f8      	beq.n	5a80 <strcmp+0x2>
    5a8e:	1a98      	subs	r0, r3, r2
    5a90:	4770      	bx	lr
    5a92:	4618      	mov	r0, r3
    5a94:	4770      	bx	lr
	...

00005a98 <WAKEUP_IRQHandler>:
    5a98:	b508      	push	{r3, lr}
    5a9a:	2005      	movs	r0, #5
    5a9c:	f7ff fcac 	bl	53f8 <cpuPllSetup>
    5aa0:	4b0f      	ldr	r3, [pc, #60]	; (5ae0 <WAKEUP_IRQHandler+0x48>)
    5aa2:	2200      	movs	r2, #0
    5aa4:	601a      	str	r2, [r3, #0]
    5aa6:	4b0f      	ldr	r3, [pc, #60]	; (5ae4 <WAKEUP_IRQHandler+0x4c>)
    5aa8:	f04f 31ff 	mov.w	r1, #4294967295
    5aac:	6019      	str	r1, [r3, #0]
    5aae:	490e      	ldr	r1, [pc, #56]	; (5ae8 <WAKEUP_IRQHandler+0x50>)
    5ab0:	6808      	ldr	r0, [r1, #0]
    5ab2:	f020 0004 	bic.w	r0, r0, #4
    5ab6:	6008      	str	r0, [r1, #0]
    5ab8:	490c      	ldr	r1, [pc, #48]	; (5aec <WAKEUP_IRQHandler+0x54>)
    5aba:	600a      	str	r2, [r1, #0]
    5abc:	4a0c      	ldr	r2, [pc, #48]	; (5af0 <WAKEUP_IRQHandler+0x58>)
    5abe:	6812      	ldr	r2, [r2, #0]
    5ac0:	b102      	cbz	r2, 5ac4 <WAKEUP_IRQHandler+0x2c>
    5ac2:	601a      	str	r2, [r3, #0]
    5ac4:	4b0b      	ldr	r3, [pc, #44]	; (5af4 <WAKEUP_IRQHandler+0x5c>)
    5ac6:	f44f 51e1 	mov.w	r1, #7200	; 0x1c20
    5aca:	681b      	ldr	r3, [r3, #0]
    5acc:	2000      	movs	r0, #0
    5ace:	fbb1 f1f3 	udiv	r1, r1, r3
    5ad2:	f000 f97b 	bl	5dcc <timer32Init>
    5ad6:	2000      	movs	r0, #0
    5ad8:	f000 f96a 	bl	5db0 <timer32Enable>
    5adc:	bf00      	nop
    5ade:	bd08      	pop	{r3, pc}
    5ae0:	4001403c 	.word	0x4001403c
    5ae4:	40048208 	.word	0x40048208
    5ae8:	e000ed10 	.word	0xe000ed10
    5aec:	40014004 	.word	0x40014004
    5af0:	4004820c 	.word	0x4004820c
    5af4:	40048078 	.word	0x40048078

00005af8 <pmuInit>:
    5af8:	4b02      	ldr	r3, [pc, #8]	; (5b04 <pmuInit+0xc>)
    5afa:	681a      	ldr	r2, [r3, #0]
    5afc:	f022 0270 	bic.w	r2, r2, #112	; 0x70
    5b00:	601a      	str	r2, [r3, #0]
    5b02:	4770      	bx	lr
    5b04:	40048238 	.word	0x40048238

00005b08 <SSP_IRQHandler>:
    5b08:	4b0e      	ldr	r3, [pc, #56]	; (5b44 <SSP_IRQHandler+0x3c>)
    5b0a:	681b      	ldr	r3, [r3, #0]
    5b0c:	f013 0f01 	tst.w	r3, #1
    5b10:	d006      	beq.n	5b20 <SSP_IRQHandler+0x18>
    5b12:	4a0d      	ldr	r2, [pc, #52]	; (5b48 <SSP_IRQHandler+0x40>)
    5b14:	6811      	ldr	r1, [r2, #0]
    5b16:	3101      	adds	r1, #1
    5b18:	6011      	str	r1, [r2, #0]
    5b1a:	4a0c      	ldr	r2, [pc, #48]	; (5b4c <SSP_IRQHandler+0x44>)
    5b1c:	2101      	movs	r1, #1
    5b1e:	6011      	str	r1, [r2, #0]
    5b20:	f013 0f02 	tst.w	r3, #2
    5b24:	d006      	beq.n	5b34 <SSP_IRQHandler+0x2c>
    5b26:	4a0a      	ldr	r2, [pc, #40]	; (5b50 <SSP_IRQHandler+0x48>)
    5b28:	6811      	ldr	r1, [r2, #0]
    5b2a:	3101      	adds	r1, #1
    5b2c:	6011      	str	r1, [r2, #0]
    5b2e:	4a07      	ldr	r2, [pc, #28]	; (5b4c <SSP_IRQHandler+0x44>)
    5b30:	2102      	movs	r1, #2
    5b32:	6011      	str	r1, [r2, #0]
    5b34:	f013 0f04 	tst.w	r3, #4
    5b38:	d003      	beq.n	5b42 <SSP_IRQHandler+0x3a>
    5b3a:	4b06      	ldr	r3, [pc, #24]	; (5b54 <SSP_IRQHandler+0x4c>)
    5b3c:	681a      	ldr	r2, [r3, #0]
    5b3e:	3201      	adds	r2, #1
    5b40:	601a      	str	r2, [r3, #0]
    5b42:	4770      	bx	lr
    5b44:	4004001c 	.word	0x4004001c
    5b48:	1000038c 	.word	0x1000038c
    5b4c:	40040020 	.word	0x40040020
    5b50:	10000384 	.word	0x10000384
    5b54:	10000388 	.word	0x10000388

00005b58 <sspInit>:
    5b58:	e92d 41f0 	stmdb	sp!, {r4, r5, r6, r7, r8, lr}
    5b5c:	4606      	mov	r6, r0
    5b5e:	4688      	mov	r8, r1
    5b60:	4617      	mov	r7, r2
    5b62:	f7ff fce7 	bl	5534 <gpioInit>
    5b66:	2e00      	cmp	r6, #0
    5b68:	d160      	bne.n	5c2c <sspInit+0xd4>
    5b6a:	4b31      	ldr	r3, [pc, #196]	; (5c30 <sspInit+0xd8>)
    5b6c:	2501      	movs	r5, #1
    5b6e:	681a      	ldr	r2, [r3, #0]
    5b70:	4c30      	ldr	r4, [pc, #192]	; (5c34 <sspInit+0xdc>)
    5b72:	f022 0201 	bic.w	r2, r2, #1
    5b76:	601a      	str	r2, [r3, #0]
    5b78:	681a      	ldr	r2, [r3, #0]
    5b7a:	2102      	movs	r1, #2
    5b7c:	f042 0201 	orr.w	r2, r2, #1
    5b80:	601a      	str	r2, [r3, #0]
    5b82:	6fda      	ldr	r2, [r3, #124]	; 0x7c
    5b84:	4630      	mov	r0, r6
    5b86:	f442 6200 	orr.w	r2, r2, #2048	; 0x800
    5b8a:	67da      	str	r2, [r3, #124]	; 0x7c
    5b8c:	f8c3 5090 	str.w	r5, [r3, #144]	; 0x90
    5b90:	4b29      	ldr	r3, [pc, #164]	; (5c38 <sspInit+0xe0>)
    5b92:	681a      	ldr	r2, [r3, #0]
    5b94:	f022 0207 	bic.w	r2, r2, #7
    5b98:	601a      	str	r2, [r3, #0]
    5b9a:	681a      	ldr	r2, [r3, #0]
    5b9c:	432a      	orrs	r2, r5
    5b9e:	601a      	str	r2, [r3, #0]
    5ba0:	685a      	ldr	r2, [r3, #4]
    5ba2:	f022 0207 	bic.w	r2, r2, #7
    5ba6:	605a      	str	r2, [r3, #4]
    5ba8:	685a      	ldr	r2, [r3, #4]
    5baa:	432a      	orrs	r2, r5
    5bac:	605a      	str	r2, [r3, #4]
    5bae:	651d      	str	r5, [r3, #80]	; 0x50
    5bb0:	611d      	str	r5, [r3, #16]
    5bb2:	6823      	ldr	r3, [r4, #0]
    5bb4:	462a      	mov	r2, r5
    5bb6:	f023 0307 	bic.w	r3, r3, #7
    5bba:	6023      	str	r3, [r4, #0]
    5bbc:	6823      	ldr	r3, [r4, #0]
    5bbe:	6023      	str	r3, [r4, #0]
    5bc0:	f7ff fcd2 	bl	5568 <gpioSetDir>
    5bc4:	2102      	movs	r1, #2
    5bc6:	462a      	mov	r2, r5
    5bc8:	4630      	mov	r0, r6
    5bca:	f7ff fd1d 	bl	5608 <gpioSetValue>
    5bce:	4631      	mov	r1, r6
    5bd0:	4620      	mov	r0, r4
    5bd2:	f7ff fd95 	bl	5700 <gpioSetPullup>
    5bd6:	f640 0207 	movw	r2, #2055	; 0x807
    5bda:	f640 0347 	movw	r3, #2119	; 0x847
    5bde:	45a8      	cmp	r8, r5
    5be0:	bf18      	it	ne
    5be2:	4613      	movne	r3, r2
    5be4:	42af      	cmp	r7, r5
    5be6:	4a15      	ldr	r2, [pc, #84]	; (5c3c <sspInit+0xe4>)
    5be8:	bf0c      	ite	eq
    5bea:	f043 0380 	orreq.w	r3, r3, #128	; 0x80
    5bee:	f023 0380 	bicne.w	r3, r3, #128	; 0x80
    5bf2:	6013      	str	r3, [r2, #0]
    5bf4:	4b12      	ldr	r3, [pc, #72]	; (5c40 <sspInit+0xe8>)
    5bf6:	2202      	movs	r2, #2
    5bf8:	601a      	str	r2, [r3, #0]
    5bfa:	f853 1c08 	ldr.w	r1, [r3, #-8]
    5bfe:	f853 1c08 	ldr.w	r1, [r3, #-8]
    5c02:	f853 1c08 	ldr.w	r1, [r3, #-8]
    5c06:	f853 1c08 	ldr.w	r1, [r3, #-8]
    5c0a:	f853 1c08 	ldr.w	r1, [r3, #-8]
    5c0e:	f853 1c08 	ldr.w	r1, [r3, #-8]
    5c12:	f853 1c08 	ldr.w	r1, [r3, #-8]
    5c16:	3b08      	subs	r3, #8
    5c18:	681b      	ldr	r3, [r3, #0]
    5c1a:	4b0a      	ldr	r3, [pc, #40]	; (5c44 <sspInit+0xec>)
    5c1c:	f44f 5100 	mov.w	r1, #8192	; 0x2000
    5c20:	6059      	str	r1, [r3, #4]
    5c22:	4b09      	ldr	r3, [pc, #36]	; (5c48 <sspInit+0xf0>)
    5c24:	2103      	movs	r1, #3
    5c26:	6019      	str	r1, [r3, #0]
    5c28:	f843 2c10 	str.w	r2, [r3, #-16]
    5c2c:	e8bd 81f0 	ldmia.w	sp!, {r4, r5, r6, r7, r8, pc}
    5c30:	40048004 	.word	0x40048004
    5c34:	4004401c 	.word	0x4004401c
    5c38:	40044060 	.word	0x40044060
    5c3c:	40040000 	.word	0x40040000
    5c40:	40040010 	.word	0x40040010
    5c44:	e000e100 	.word	0xe000e100
    5c48:	40040014 	.word	0x40040014

00005c4c <sspSend>:
    5c4c:	b510      	push	{r4, lr}
    5c4e:	b190      	cbz	r0, 5c76 <sspSend+0x2a>
    5c50:	e013      	b.n	5c7a <sspSend+0x2e>
    5c52:	4b0a      	ldr	r3, [pc, #40]	; (5c7c <sspSend+0x30>)
    5c54:	681b      	ldr	r3, [r3, #0]
    5c56:	f003 0312 	and.w	r3, r3, #18
    5c5a:	2b02      	cmp	r3, #2
    5c5c:	d1f9      	bne.n	5c52 <sspSend+0x6>
    5c5e:	5c0c      	ldrb	r4, [r1, r0]
    5c60:	4b07      	ldr	r3, [pc, #28]	; (5c80 <sspSend+0x34>)
    5c62:	601c      	str	r4, [r3, #0]
    5c64:	4b05      	ldr	r3, [pc, #20]	; (5c7c <sspSend+0x30>)
    5c66:	681b      	ldr	r3, [r3, #0]
    5c68:	f003 0314 	and.w	r3, r3, #20
    5c6c:	2b04      	cmp	r3, #4
    5c6e:	d1f9      	bne.n	5c64 <sspSend+0x18>
    5c70:	4b03      	ldr	r3, [pc, #12]	; (5c80 <sspSend+0x34>)
    5c72:	3001      	adds	r0, #1
    5c74:	681b      	ldr	r3, [r3, #0]
    5c76:	4290      	cmp	r0, r2
    5c78:	d1eb      	bne.n	5c52 <sspSend+0x6>
    5c7a:	bd10      	pop	{r4, pc}
    5c7c:	4004000c 	.word	0x4004000c
    5c80:	40040008 	.word	0x40040008

00005c84 <sspReceive>:
    5c84:	b510      	push	{r4, lr}
    5c86:	b168      	cbz	r0, 5ca4 <sspReceive+0x20>
    5c88:	e00e      	b.n	5ca8 <sspReceive+0x24>
    5c8a:	4b08      	ldr	r3, [pc, #32]	; (5cac <sspReceive+0x28>)
    5c8c:	24ff      	movs	r4, #255	; 0xff
    5c8e:	601c      	str	r4, [r3, #0]
    5c90:	4b07      	ldr	r3, [pc, #28]	; (5cb0 <sspReceive+0x2c>)
    5c92:	681b      	ldr	r3, [r3, #0]
    5c94:	f003 0314 	and.w	r3, r3, #20
    5c98:	2b04      	cmp	r3, #4
    5c9a:	d1f9      	bne.n	5c90 <sspReceive+0xc>
    5c9c:	4b03      	ldr	r3, [pc, #12]	; (5cac <sspReceive+0x28>)
    5c9e:	681b      	ldr	r3, [r3, #0]
    5ca0:	540b      	strb	r3, [r1, r0]
    5ca2:	3001      	adds	r0, #1
    5ca4:	4290      	cmp	r0, r2
    5ca6:	d1f0      	bne.n	5c8a <sspReceive+0x6>
    5ca8:	bd10      	pop	{r4, pc}
    5caa:	bf00      	nop
    5cac:	40040008 	.word	0x40040008
    5cb0:	4004000c 	.word	0x4004000c

00005cb4 <sspSendReceive>:
    5cb4:	b510      	push	{r4, lr}
    5cb6:	b198      	cbz	r0, 5ce0 <sspSendReceive+0x2c>
    5cb8:	e014      	b.n	5ce4 <sspSendReceive+0x30>
    5cba:	4b0b      	ldr	r3, [pc, #44]	; (5ce8 <sspSendReceive+0x34>)
    5cbc:	681b      	ldr	r3, [r3, #0]
    5cbe:	f003 0312 	and.w	r3, r3, #18
    5cc2:	2b02      	cmp	r3, #2
    5cc4:	d1f9      	bne.n	5cba <sspSendReceive+0x6>
    5cc6:	5c0c      	ldrb	r4, [r1, r0]
    5cc8:	4b08      	ldr	r3, [pc, #32]	; (5cec <sspSendReceive+0x38>)
    5cca:	601c      	str	r4, [r3, #0]
    5ccc:	4b06      	ldr	r3, [pc, #24]	; (5ce8 <sspSendReceive+0x34>)
    5cce:	681b      	ldr	r3, [r3, #0]
    5cd0:	f003 0314 	and.w	r3, r3, #20
    5cd4:	2b04      	cmp	r3, #4
    5cd6:	d1f9      	bne.n	5ccc <sspSendReceive+0x18>
    5cd8:	4b04      	ldr	r3, [pc, #16]	; (5cec <sspSendReceive+0x38>)
    5cda:	681b      	ldr	r3, [r3, #0]
    5cdc:	540b      	strb	r3, [r1, r0]
    5cde:	3001      	adds	r0, #1
    5ce0:	4290      	cmp	r0, r2
    5ce2:	d1ea      	bne.n	5cba <sspSendReceive+0x6>
    5ce4:	bd10      	pop	{r4, pc}
    5ce6:	bf00      	nop
    5ce8:	4004000c 	.word	0x4004000c
    5cec:	40040008 	.word	0x40040008

00005cf0 <SysTick_Handler>:
    5cf0:	4b06      	ldr	r3, [pc, #24]	; (5d0c <SysTick_Handler+0x1c>)
    5cf2:	681a      	ldr	r2, [r3, #0]
    5cf4:	3201      	adds	r2, #1
    5cf6:	601a      	str	r2, [r3, #0]
    5cf8:	681b      	ldr	r3, [r3, #0]
    5cfa:	f1b3 3fff 	cmp.w	r3, #4294967295
    5cfe:	d103      	bne.n	5d08 <SysTick_Handler+0x18>
    5d00:	4b03      	ldr	r3, [pc, #12]	; (5d10 <SysTick_Handler+0x20>)
    5d02:	681a      	ldr	r2, [r3, #0]
    5d04:	3201      	adds	r2, #1
    5d06:	601a      	str	r2, [r3, #0]
    5d08:	f7fa bb73 	b.w	3f2 <tick_wrapper>
    5d0c:	10000394 	.word	0x10000394
    5d10:	10000390 	.word	0x10000390

00005d14 <systickInit>:
    5d14:	4b09      	ldr	r3, [pc, #36]	; (5d3c <systickInit+0x28>)
    5d16:	4343      	muls	r3, r0
    5d18:	f1b3 7f80 	cmp.w	r3, #16777216	; 0x1000000
    5d1c:	d20c      	bcs.n	5d38 <systickInit+0x24>
    5d1e:	4908      	ldr	r1, [pc, #32]	; (5d40 <systickInit+0x2c>)
    5d20:	2200      	movs	r2, #0
    5d22:	600a      	str	r2, [r1, #0]
    5d24:	f023 437f 	bic.w	r3, r3, #4278190080	; 0xff000000
    5d28:	4906      	ldr	r1, [pc, #24]	; (5d44 <systickInit+0x30>)
    5d2a:	3b01      	subs	r3, #1
    5d2c:	600b      	str	r3, [r1, #0]
    5d2e:	4b06      	ldr	r3, [pc, #24]	; (5d48 <systickInit+0x34>)
    5d30:	601a      	str	r2, [r3, #0]
    5d32:	3207      	adds	r2, #7
    5d34:	f843 2c08 	str.w	r2, [r3, #-8]
    5d38:	4770      	bx	lr
    5d3a:	bf00      	nop
    5d3c:	00011940 	.word	0x00011940
    5d40:	10000394 	.word	0x10000394
    5d44:	e000e014 	.word	0xe000e014
    5d48:	e000e018 	.word	0xe000e018

00005d4c <systickGetTicks>:
    5d4c:	4b01      	ldr	r3, [pc, #4]	; (5d54 <systickGetTicks+0x8>)
    5d4e:	6818      	ldr	r0, [r3, #0]
    5d50:	4770      	bx	lr
    5d52:	bf00      	nop
    5d54:	10000394 	.word	0x10000394

00005d58 <NVIC_EnableIRQ>:
    5d58:	0942      	lsrs	r2, r0, #5
    5d5a:	2301      	movs	r3, #1
    5d5c:	f000 001f 	and.w	r0, r0, #31
    5d60:	fa13 f000 	lsls.w	r0, r3, r0
    5d64:	4b01      	ldr	r3, [pc, #4]	; (5d6c <NVIC_EnableIRQ+0x14>)
    5d66:	f843 0022 	str.w	r0, [r3, r2, lsl #2]
    5d6a:	4770      	bx	lr
    5d6c:	e000e100 	.word	0xe000e100

00005d70 <TIMER32_0_IRQHandler>:
    5d70:	b508      	push	{r3, lr}
    5d72:	4b06      	ldr	r3, [pc, #24]	; (5d8c <TIMER32_0_IRQHandler+0x1c>)
    5d74:	2201      	movs	r2, #1
    5d76:	601a      	str	r2, [r3, #0]
    5d78:	4b05      	ldr	r3, [pc, #20]	; (5d90 <TIMER32_0_IRQHandler+0x20>)
    5d7a:	681a      	ldr	r2, [r3, #0]
    5d7c:	3201      	adds	r2, #1
    5d7e:	601a      	str	r2, [r3, #0]
    5d80:	4b04      	ldr	r3, [pc, #16]	; (5d94 <TIMER32_0_IRQHandler+0x24>)
    5d82:	681b      	ldr	r3, [r3, #0]
    5d84:	f043 0301 	orr.w	r3, r3, #1
    5d88:	4798      	blx	r3
    5d8a:	bd08      	pop	{r3, pc}
    5d8c:	40014000 	.word	0x40014000
    5d90:	10000398 	.word	0x10000398
    5d94:	10000dec 	.word	0x10000dec

00005d98 <TIMER32_1_IRQHandler>:
    5d98:	4b03      	ldr	r3, [pc, #12]	; (5da8 <TIMER32_1_IRQHandler+0x10>)
    5d9a:	2201      	movs	r2, #1
    5d9c:	601a      	str	r2, [r3, #0]
    5d9e:	4b03      	ldr	r3, [pc, #12]	; (5dac <TIMER32_1_IRQHandler+0x14>)
    5da0:	681a      	ldr	r2, [r3, #0]
    5da2:	3201      	adds	r2, #1
    5da4:	601a      	str	r2, [r3, #0]
    5da6:	4770      	bx	lr
    5da8:	40018000 	.word	0x40018000
    5dac:	1000039c 	.word	0x1000039c

00005db0 <timer32Enable>:
    5db0:	b918      	cbnz	r0, 5dba <timer32Enable+0xa>
    5db2:	4b04      	ldr	r3, [pc, #16]	; (5dc4 <timer32Enable+0x14>)
    5db4:	2201      	movs	r2, #1
    5db6:	601a      	str	r2, [r3, #0]
    5db8:	4770      	bx	lr
    5dba:	2801      	cmp	r0, #1
    5dbc:	bf04      	itt	eq
    5dbe:	4b02      	ldreq	r3, [pc, #8]	; (5dc8 <timer32Enable+0x18>)
    5dc0:	6018      	streq	r0, [r3, #0]
    5dc2:	4770      	bx	lr
    5dc4:	40014004 	.word	0x40014004
    5dc8:	40018004 	.word	0x40018004

00005dcc <timer32Init>:
    5dcc:	b929      	cbnz	r1, 5dda <timer32Init+0xe>
    5dce:	4b12      	ldr	r3, [pc, #72]	; (5e18 <timer32Init+0x4c>)
    5dd0:	f44f 51e1 	mov.w	r1, #7200	; 0x1c20
    5dd4:	681b      	ldr	r3, [r3, #0]
    5dd6:	fbb1 f1f3 	udiv	r1, r1, r3
    5dda:	b950      	cbnz	r0, 5df2 <timer32Init+0x26>
    5ddc:	4b0f      	ldr	r3, [pc, #60]	; (5e1c <timer32Init+0x50>)
    5dde:	681a      	ldr	r2, [r3, #0]
    5de0:	f442 7200 	orr.w	r2, r2, #512	; 0x200
    5de4:	601a      	str	r2, [r3, #0]
    5de6:	4b0e      	ldr	r3, [pc, #56]	; (5e20 <timer32Init+0x54>)
    5de8:	2203      	movs	r2, #3
    5dea:	6018      	str	r0, [r3, #0]
    5dec:	4b0d      	ldr	r3, [pc, #52]	; (5e24 <timer32Init+0x58>)
    5dee:	6019      	str	r1, [r3, #0]
    5df0:	e00c      	b.n	5e0c <timer32Init+0x40>
    5df2:	2801      	cmp	r0, #1
    5df4:	d10f      	bne.n	5e16 <timer32Init+0x4a>
    5df6:	4b09      	ldr	r3, [pc, #36]	; (5e1c <timer32Init+0x50>)
    5df8:	681a      	ldr	r2, [r3, #0]
    5dfa:	f442 6280 	orr.w	r2, r2, #1024	; 0x400
    5dfe:	601a      	str	r2, [r3, #0]
    5e00:	4b09      	ldr	r3, [pc, #36]	; (5e28 <timer32Init+0x5c>)
    5e02:	2200      	movs	r2, #0
    5e04:	601a      	str	r2, [r3, #0]
    5e06:	4b09      	ldr	r3, [pc, #36]	; (5e2c <timer32Init+0x60>)
    5e08:	3203      	adds	r2, #3
    5e0a:	6019      	str	r1, [r3, #0]
    5e0c:	302b      	adds	r0, #43	; 0x2b
    5e0e:	f843 2c04 	str.w	r2, [r3, #-4]
    5e12:	f7ff bfa1 	b.w	5d58 <NVIC_EnableIRQ>
    5e16:	4770      	bx	lr
    5e18:	40048078 	.word	0x40048078
    5e1c:	40048080 	.word	0x40048080
    5e20:	10000398 	.word	0x10000398
    5e24:	40014018 	.word	0x40014018
    5e28:	1000039c 	.word	0x1000039c
    5e2c:	40018018 	.word	0x40018018

00005e30 <usbMSCRead>:
    5e30:	4603      	mov	r3, r0
    5e32:	4608      	mov	r0, r1
    5e34:	4619      	mov	r1, r3
    5e36:	f7fb bf7f 	b.w	1d38 <dataflash_random_read>

00005e3a <usbMSCWrite>:
    5e3a:	4603      	mov	r3, r0
    5e3c:	4608      	mov	r0, r1
    5e3e:	4619      	mov	r1, r3
    5e40:	f7fb bfde 	b.w	1e00 <dataflash_random_write>

00005e44 <usbMSCInit>:
    5e44:	b513      	push	{r0, r1, r4, lr}
    5e46:	f7fb ff5b 	bl	1d00 <dataflash_initialize>
    5e4a:	4b3b      	ldr	r3, [pc, #236]	; (5f38 <usbMSCInit+0xf4>)
    5e4c:	2100      	movs	r1, #0
    5e4e:	681a      	ldr	r2, [r3, #0]
    5e50:	f422 6280 	bic.w	r2, r2, #1024	; 0x400
    5e54:	601a      	str	r2, [r3, #0]
    5e56:	681a      	ldr	r2, [r3, #0]
    5e58:	f422 7280 	bic.w	r2, r2, #256	; 0x100
    5e5c:	601a      	str	r2, [r3, #0]
    5e5e:	4b37      	ldr	r3, [pc, #220]	; (5f3c <usbMSCInit+0xf8>)
    5e60:	2201      	movs	r2, #1
    5e62:	601a      	str	r2, [r3, #0]
    5e64:	605a      	str	r2, [r3, #4]
    5e66:	6059      	str	r1, [r3, #4]
    5e68:	605a      	str	r2, [r3, #4]
    5e6a:	4b35      	ldr	r3, [pc, #212]	; (5f40 <usbMSCInit+0xfc>)
    5e6c:	681b      	ldr	r3, [r3, #0]
    5e6e:	f013 0f01 	tst.w	r3, #1
    5e72:	d0fa      	beq.n	5e6a <usbMSCInit+0x26>
    5e74:	4b33      	ldr	r3, [pc, #204]	; (5f44 <usbMSCInit+0x100>)
    5e76:	2203      	movs	r2, #3
    5e78:	601a      	str	r2, [r3, #0]
    5e7a:	4b33      	ldr	r3, [pc, #204]	; (5f48 <usbMSCInit+0x104>)
    5e7c:	681b      	ldr	r3, [r3, #0]
    5e7e:	f013 0f01 	tst.w	r3, #1
    5e82:	d0fa      	beq.n	5e7a <usbMSCInit+0x36>
    5e84:	4b31      	ldr	r3, [pc, #196]	; (5f4c <usbMSCInit+0x108>)
    5e86:	4832      	ldr	r0, [pc, #200]	; (5f50 <usbMSCInit+0x10c>)
    5e88:	2400      	movs	r4, #0
    5e8a:	601c      	str	r4, [r3, #0]
    5e8c:	6803      	ldr	r3, [r0, #0]
    5e8e:	4621      	mov	r1, r4
    5e90:	f023 0307 	bic.w	r3, r3, #7
    5e94:	6003      	str	r3, [r0, #0]
    5e96:	6803      	ldr	r3, [r0, #0]
    5e98:	f043 0301 	orr.w	r3, r3, #1
    5e9c:	6003      	str	r3, [r0, #0]
    5e9e:	4b2d      	ldr	r3, [pc, #180]	; (5f54 <usbMSCInit+0x110>)
    5ea0:	681a      	ldr	r2, [r3, #0]
    5ea2:	f022 0207 	bic.w	r2, r2, #7
    5ea6:	601a      	str	r2, [r3, #0]
    5ea8:	681a      	ldr	r2, [r3, #0]
    5eaa:	f042 0201 	orr.w	r2, r2, #1
    5eae:	601a      	str	r2, [r3, #0]
    5eb0:	f7ff fc26 	bl	5700 <gpioSetPullup>
    5eb4:	4b28      	ldr	r3, [pc, #160]	; (5f58 <usbMSCInit+0x114>)
    5eb6:	f640 02ac 	movw	r2, #2220	; 0x8ac
    5eba:	601c      	str	r4, [r3, #0]
    5ebc:	4b27      	ldr	r3, [pc, #156]	; (5f5c <usbMSCInit+0x118>)
    5ebe:	f44f 51b6 	mov.w	r1, #5824	; 0x16c0
    5ec2:	805a      	strh	r2, [r3, #2]
    5ec4:	4a26      	ldr	r2, [pc, #152]	; (5f60 <usbMSCInit+0x11c>)
    5ec6:	8019      	strh	r1, [r3, #0]
    5ec8:	609a      	str	r2, [r3, #8]
    5eca:	4a26      	ldr	r2, [pc, #152]	; (5f64 <usbMSCInit+0x120>)
    5ecc:	f44f 7180 	mov.w	r1, #256	; 0x100
    5ed0:	60da      	str	r2, [r3, #12]
    5ed2:	f44f 6280 	mov.w	r2, #1024	; 0x400
    5ed6:	611a      	str	r2, [r3, #16]
    5ed8:	f44f 7200 	mov.w	r2, #512	; 0x200
    5edc:	615a      	str	r2, [r3, #20]
    5ede:	f44f 2200 	mov.w	r2, #524288	; 0x80000
    5ee2:	619a      	str	r2, [r3, #24]
    5ee4:	4a20      	ldr	r2, [pc, #128]	; (5f68 <usbMSCInit+0x124>)
    5ee6:	8099      	strh	r1, [r3, #4]
    5ee8:	61da      	str	r2, [r3, #28]
    5eea:	4a20      	ldr	r2, [pc, #128]	; (5f6c <usbMSCInit+0x128>)
    5eec:	2108      	movs	r1, #8
    5eee:	621a      	str	r2, [r3, #32]
    5ef0:	4a1f      	ldr	r2, [pc, #124]	; (5f70 <usbMSCInit+0x12c>)
    5ef2:	6053      	str	r3, [r2, #4]
    5ef4:	4b1f      	ldr	r3, [pc, #124]	; (5f74 <usbMSCInit+0x130>)
    5ef6:	8011      	strh	r1, [r2, #0]
    5ef8:	681a      	ldr	r2, [r3, #0]
    5efa:	f442 32a2 	orr.w	r2, r2, #82944	; 0x14400
    5efe:	601a      	str	r2, [r3, #0]
    5f00:	9401      	str	r4, [sp, #4]
    5f02:	e003      	b.n	5f0c <usbMSCInit+0xc8>
    5f04:	bf00      	nop
    5f06:	9b01      	ldr	r3, [sp, #4]
    5f08:	3301      	adds	r3, #1
    5f0a:	9301      	str	r3, [sp, #4]
    5f0c:	9b01      	ldr	r3, [sp, #4]
    5f0e:	2b4a      	cmp	r3, #74	; 0x4a
    5f10:	ddf8      	ble.n	5f04 <usbMSCInit+0xc0>
    5f12:	4c19      	ldr	r4, [pc, #100]	; (5f78 <usbMSCInit+0x134>)
    5f14:	4816      	ldr	r0, [pc, #88]	; (5f70 <usbMSCInit+0x12c>)
    5f16:	6823      	ldr	r3, [r4, #0]
    5f18:	681b      	ldr	r3, [r3, #0]
    5f1a:	681b      	ldr	r3, [r3, #0]
    5f1c:	689b      	ldr	r3, [r3, #8]
    5f1e:	4798      	blx	r3
    5f20:	6823      	ldr	r3, [r4, #0]
    5f22:	2001      	movs	r0, #1
    5f24:	681b      	ldr	r3, [r3, #0]
    5f26:	681b      	ldr	r3, [r3, #0]
    5f28:	68db      	ldr	r3, [r3, #12]
    5f2a:	4798      	blx	r3
    5f2c:	4b13      	ldr	r3, [pc, #76]	; (5f7c <usbMSCInit+0x138>)
    5f2e:	781a      	ldrb	r2, [r3, #0]
    5f30:	f042 0201 	orr.w	r2, r2, #1
    5f34:	701a      	strb	r2, [r3, #0]
    5f36:	bd1c      	pop	{r2, r3, r4, pc}
    5f38:	40048238 	.word	0x40048238
    5f3c:	40048048 	.word	0x40048048
    5f40:	4004804c 	.word	0x4004804c
    5f44:	40048010 	.word	0x40048010
    5f48:	40048014 	.word	0x40048014
    5f4c:	400480c0 	.word	0x400480c0
    5f50:	4004402c 	.word	0x4004402c
    5f54:	4004404c 	.word	0x4004404c
    5f58:	10000054 	.word	0x10000054
    5f5c:	10000df8 	.word	0x10000df8
    5f60:	000065ad 	.word	0x000065ad
    5f64:	00006590 	.word	0x00006590
    5f68:	00005e3b 	.word	0x00005e3b
    5f6c:	00005e31 	.word	0x00005e31
    5f70:	10000df0 	.word	0x10000df0
    5f74:	40048080 	.word	0x40048080
    5f78:	100002c4 	.word	0x100002c4
    5f7c:	100003a0 	.word	0x100003a0

00005f80 <USB_IRQHandler>:
    5f80:	b508      	push	{r3, lr}
    5f82:	4b03      	ldr	r3, [pc, #12]	; (5f90 <USB_IRQHandler+0x10>)
    5f84:	681b      	ldr	r3, [r3, #0]
    5f86:	681b      	ldr	r3, [r3, #0]
    5f88:	681b      	ldr	r3, [r3, #0]
    5f8a:	685b      	ldr	r3, [r3, #4]
    5f8c:	4798      	blx	r3
    5f8e:	bd08      	pop	{r3, pc}
    5f90:	100002c4 	.word	0x100002c4

00005f94 <flameSetI2C>:
    5f94:	4b05      	ldr	r3, [pc, #20]	; (5fac <flameSetI2C+0x18>)
    5f96:	7018      	strb	r0, [r3, #0]
    5f98:	7059      	strb	r1, [r3, #1]
    5f9a:	709a      	strb	r2, [r3, #2]
    5f9c:	4b04      	ldr	r3, [pc, #16]	; (5fb0 <flameSetI2C+0x1c>)
    5f9e:	2203      	movs	r2, #3
    5fa0:	601a      	str	r2, [r3, #0]
    5fa2:	4b04      	ldr	r3, [pc, #16]	; (5fb4 <flameSetI2C+0x20>)
    5fa4:	3a03      	subs	r2, #3
    5fa6:	601a      	str	r2, [r3, #0]
    5fa8:	f7ff bcbe 	b.w	5928 <i2cEngine>
    5fac:	10000dba 	.word	0x10000dba
    5fb0:	10000dc0 	.word	0x10000dc0
    5fb4:	10000db0 	.word	0x10000db0

00005fb8 <_setFlameColor>:
    5fb8:	b510      	push	{r4, lr}
    5fba:	4c09      	ldr	r4, [pc, #36]	; (5fe0 <_setFlameColor+0x28>)
    5fbc:	2102      	movs	r1, #2
    5fbe:	7822      	ldrb	r2, [r4, #0]
    5fc0:	20c6      	movs	r0, #198	; 0xc6
    5fc2:	f7ff ffe7 	bl	5f94 <flameSetI2C>
    5fc6:	2105      	movs	r1, #5
    5fc8:	7862      	ldrb	r2, [r4, #1]
    5fca:	20c6      	movs	r0, #198	; 0xc6
    5fcc:	f7ff ffe2 	bl	5f94 <flameSetI2C>
    5fd0:	78a2      	ldrb	r2, [r4, #2]
    5fd2:	20c6      	movs	r0, #198	; 0xc6
    5fd4:	2104      	movs	r1, #4
    5fd6:	e8bd 4010 	ldmia.w	sp!, {r4, lr}
    5fda:	f7ff bfdb 	b.w	5f94 <flameSetI2C>
    5fde:	bf00      	nop
    5fe0:	10000e1c 	.word	0x10000e1c

00005fe4 <_setFlamePWMm0n0>:
    5fe4:	4b02      	ldr	r3, [pc, #8]	; (5ff0 <_setFlamePWMm0n0+0xc>)
    5fe6:	20c4      	movs	r0, #196	; 0xc4
    5fe8:	781a      	ldrb	r2, [r3, #0]
    5fea:	2102      	movs	r1, #2
    5fec:	f7ff bfd2 	b.w	5f94 <flameSetI2C>
    5ff0:	100003a2 	.word	0x100003a2

00005ff4 <_setFlamePWMrgb>:
    5ff4:	4b02      	ldr	r3, [pc, #8]	; (6000 <_setFlamePWMrgb+0xc>)
    5ff6:	20c6      	movs	r0, #198	; 0xc6
    5ff8:	781a      	ldrb	r2, [r3, #0]
    5ffa:	2106      	movs	r1, #6
    5ffc:	f7ff bfca 	b.w	5f94 <flameSetI2C>
    6000:	100003a3 	.word	0x100003a3

00006004 <flameDetect>:
    6004:	b538      	push	{r3, r4, r5, lr}
    6006:	2001      	movs	r0, #1
    6008:	f7ff fc4c 	bl	58a4 <i2cInit>
    600c:	2100      	movs	r1, #0
    600e:	460a      	mov	r2, r1
    6010:	20c6      	movs	r0, #198	; 0xc6
    6012:	f7ff ffbf 	bl	5f94 <flameSetI2C>
    6016:	f240 1501 	movw	r5, #257	; 0x101
    601a:	42a8      	cmp	r0, r5
    601c:	bf0c      	ite	eq
    601e:	2402      	moveq	r4, #2
    6020:	2400      	movne	r4, #0
    6022:	2105      	movs	r1, #5
    6024:	2200      	movs	r2, #0
    6026:	20c4      	movs	r0, #196	; 0xc4
    6028:	f7ff ffb4 	bl	5f94 <flameSetI2C>
    602c:	42a8      	cmp	r0, r5
    602e:	bf04      	itt	eq
    6030:	f044 0401 	orreq.w	r4, r4, #1
    6034:	b2e4      	uxtbeq	r4, r4
    6036:	4620      	mov	r0, r4
    6038:	bd38      	pop	{r3, r4, r5, pc}
	...

0000603c <flameSetBrightness>:
    603c:	f010 0f01 	tst.w	r0, #1
    6040:	b570      	push	{r4, r5, r6, lr}
    6042:	4604      	mov	r4, r0
    6044:	460d      	mov	r5, r1
    6046:	d004      	beq.n	6052 <flameSetBrightness+0x16>
    6048:	4b07      	ldr	r3, [pc, #28]	; (6068 <flameSetBrightness+0x2c>)
    604a:	4808      	ldr	r0, [pc, #32]	; (606c <flameSetBrightness+0x30>)
    604c:	7019      	strb	r1, [r3, #0]
    604e:	f7fd fbab 	bl	37a8 <push_queue>
    6052:	f014 0f02 	tst.w	r4, #2
    6056:	d006      	beq.n	6066 <flameSetBrightness+0x2a>
    6058:	4b05      	ldr	r3, [pc, #20]	; (6070 <flameSetBrightness+0x34>)
    605a:	4806      	ldr	r0, [pc, #24]	; (6074 <flameSetBrightness+0x38>)
    605c:	701d      	strb	r5, [r3, #0]
    605e:	e8bd 4070 	ldmia.w	sp!, {r4, r5, r6, lr}
    6062:	f7fd bba1 	b.w	37a8 <push_queue>
    6066:	bd70      	pop	{r4, r5, r6, pc}
    6068:	100003a2 	.word	0x100003a2
    606c:	00005fe5 	.word	0x00005fe5
    6070:	100003a3 	.word	0x100003a3
    6074:	00005ff5 	.word	0x00005ff5

00006078 <flameSetColor>:
    6078:	f010 0f02 	tst.w	r0, #2
    607c:	d006      	beq.n	608c <flameSetColor+0x14>
    607e:	4804      	ldr	r0, [pc, #16]	; (6090 <flameSetColor+0x18>)
    6080:	7001      	strb	r1, [r0, #0]
    6082:	7042      	strb	r2, [r0, #1]
    6084:	7083      	strb	r3, [r0, #2]
    6086:	4803      	ldr	r0, [pc, #12]	; (6094 <flameSetColor+0x1c>)
    6088:	f7fd bb8e 	b.w	37a8 <push_queue>
    608c:	4770      	bx	lr
    608e:	bf00      	nop
    6090:	10000e1c 	.word	0x10000e1c
    6094:	00005fb9 	.word	0x00005fb9

00006098 <flameClaim>:
    6098:	4b02      	ldr	r3, [pc, #8]	; (60a4 <flameClaim+0xc>)
    609a:	781a      	ldrb	r2, [r3, #0]
    609c:	ea40 0202 	orr.w	r2, r0, r2
    60a0:	701a      	strb	r2, [r3, #0]
    60a2:	4770      	bx	lr
    60a4:	100003a1 	.word	0x100003a1

000060a8 <flameFree>:
    60a8:	4b02      	ldr	r3, [pc, #8]	; (60b4 <flameFree+0xc>)
    60aa:	781a      	ldrb	r2, [r3, #0]
    60ac:	ea22 0200 	bic.w	r2, r2, r0
    60b0:	701a      	strb	r2, [r3, #0]
    60b2:	4770      	bx	lr
    60b4:	100003a1 	.word	0x100003a1
    60b8:	20505349 	.word	0x20505349
    60bc:	69746361 	.word	0x69746361
    60c0:	4d006576 	.word	0x4d006576
    60c4:	61204353 	.word	0x61204353
    60c8:	76697463 	.word	0x76697463
    60cc:	0065      	.short	0x0065
    60ce:	3072      	.short	0x3072
    60d0:	2e74656b 	.word	0x2e74656b
    60d4:	0064636c 	.word	0x0064636c
    60d8:	2c2b2a22 	.word	0x2c2b2a22
    60dc:	3d3c3b3a 	.word	0x3d3c3b3a
    60e0:	5d5b3f3e 	.word	0x5d5b3f3e
    60e4:	7f7c      	.short	0x7f7c
	...

000060e7 <init1>:
    60e7:	feeb 4d90 4453 534f 2e35 0030 0102 0001     ...MSDOS5.0.....
    60f7:	0001 0002 f004 0004 003f 80ff                    ........?..

00006102 <init2>:
    6102:	0080 3729 554b 4e33 204f 414e 454d 2020     ..)7KU3NO NAME  
    6112:	2020 4146 2054 2020 2020 3a30 6600 6c69       FAT     0:.fil
    6122:	7365 7379 6d74 6220 7230 006b 6f46 6d72     esystm b0rk.Form
    6132:	7461 6e69 2e67 2e2e 4400 6e6f 2e65 4e00     ating....Done..N
    6142:	776f 6320 706f 2079 6966 656c 0073 6f74     ow copy files.to
    6152:	6420 6972 6576 202e 6553 0065 3072 656b      drive. See.r0ke
    6162:	2e74 6564 692f 696e 0074 6f4e 4620 6c69     t.de/init.No Fil
    6172:	7365 003f 6553 656c 7463 6620 6c69 3a65     es?.Select file:
    6182:	2a00 0000 0000                              .*....

00006188 <C.0.5757>:
    6188:	4010 4004 4054 4004 4000 4004 40ac 4004     .@.@T@.@.@.@.@.@
    6198:	4020 4004                                    @.@

0000619c <ports.4739>:
    619c:	0100 0902 0602 0303 0702 0b00 0701 0601     ................
    61ac:	0502 0402 0802 0203 0103 0a02 0301 0a00     ................
    61bc:	0101 0200 0401 0201                         ........

000061c4 <I>:
    61c4:	000c 0000 000d 0000 000e 0000 000f 0000     ................
    61d4:	3072 656b 2e74 6663 0067 6576 7372 6f69     r0ket.cfg.versio
    61e4:	006e 7270 7669 6361 0079 6164 7479 6972     n.privacy.daytri
    61f4:	0067 6164 7479 6972 6867 7379 0074 6164     g.daytrighyst.da
    6204:	6979 766e 7265 0074 636c 6264 6361 6c6b     yinvert.lcdbackl
    6214:	6769 7468 6c00 6463 696d 7272 726f 6c00     ight.lcdmirror.l
    6224:	6463 6e69 6576 7472 6c00 6463 6f63 746e     cdinvert.lcdcont
    6234:	6172 7473 6100 696c 6576 6863 006b 6564     rast.alivechk.de
    6244:	6576 6d6c 646f 0065 6c66 6d61 6d65 7861     velmode.flamemax
    6254:	6600 616c 656d 696d 006e 6c66 6d61 7365     .flamemin.flames
    6264:	6570 6465 6600 616c 656d 616d 7778 6600     peed.flamemaxw.f
    6274:	616c 656d 696d 776e 6c00 6e30 6369 006b     lameminw.l0nick.
    6284:	6863 7261 6567 656c 0064 6f70 6973 6974     chargeled.positi
    6294:	6e6f 656c 7364 2d00 5b00 2f00 5d00 e200          onleds.-.[./.].

000062a3 <initseq.4803>:
    62a3:	afe2 a4a1 b02f 1110                              ..../..

000062aa <initseq_d.4808>:
    62aa:	2911 1303 023a 012a 2b60 4401               .)..:.*.`+.D

000062b6 <au8Font7x8>:
	...
    62be:	5f06 065f 0000 0700 0007 0707 1400 7f7f     .__.............
    62ce:	7f14 147f 2e24 6b6b 123a 4600 3066 0c18     ....$.kk:..Ff0..
    62de:	6266 7a30 5d4f 7a37 0448 0307 0000 0000     fb0zO]7zH.......
    62ee:	1c00 633e 0041 0000 6341 1c3e 0000 2a08     ..>cA...Ac>....*
    62fe:	1c3e 3e1c 082a 3e08 083e 0008 8000 60e0     >..>*..>>......`
    630e:	0000 0800 0808 0808 0008 0000 6060 0000     ............``..
    631e:	6000 1830 060c 0103 7f3e 5971 7f4d 403e     .`0.....>.qYM.>@
    632e:	7f42 407f 0040 7362 4959 666f 2200 4963     B..@@.bsYIof."cI
    633e:	7f49 0036 1c18 5316 7f7f 2750 4567 7d45     I.6....S..P'gEE}
    634e:	0039 7e3c 494b 3079 0300 7103 0f79 0007     9.<~KIy0...qy...
    635e:	7f36 4949 367f 0600 494f 3f69 001e 0000     6.II.6..OIi?....
    636e:	6666 0000 0000 e680 0066 0000 1c08 6336     ff......f.....6c
    637e:	0041 2400 2424 2424 0024 4100 3663 081c     A..$$$$$$..Ac6..
    638e:	0200 5103 0f59 0006 7f3e 5d41 1f5d 7c1e     ...QY...>.A]]..|
    639e:	137e 7e13 007c 7f41 497f 7f49 1c36 633e     ~..~|.A..II.6.>c
    63ae:	4141 2263 7f41 417f 3e63 411c 7f7f 5d49     AAc"A..Ac>.A..I]
    63be:	6341 7f41 497f 011d 1c03 633e 5141 7273     AcA..I....>cAQsr
    63ce:	7f7f 0808 7f7f 0000 7f41 417f 0000 7030     ........A..A..0p
    63de:	4140 3f7f 4101 7f7f 1c08 6377 7f41 417f     @A.?.A....wcA..A
    63ee:	6040 7f70 0e7f 0e1c 7f7f 7f7f 0c06 7f18     @`p.............
    63fe:	1c7f 633e 6341 1c3e 7f41 497f 0f09 1e06     ..>cAc>.A..I....
    640e:	213f 7f71 005e 7f41 097f 7f19 2666 4d6f     ?!q.^.A.....f&oM
    641e:	7359 0032 4103 7f7f 0341 7f00 407f 7f40     Ys2..A..A....@@.
    642e:	007f 3f1f 6060 1f3f 7f00 307f 3018 7f7f     ...?``?....0.0..
    643e:	6743 183c 673c 0743 784f 4f78 0007 6347     Cg<.<gC.OxxO..Gc
    644e:	5971 674d 0073 7f7f 4141 0000 0301 0c06     qYMgs...AA......
    645e:	3018 0060 4141 7f7f 0000 0c08 0306 0c06     .0`.AA..........
    646e:	8008 8080 8080 8080 0000 0703 0004 2000     ............... 
    647e:	5474 3c54 4078 7f41 483f 7848 3830 447c     tTT<x@A.?HHx08|D
    648e:	6c44 0028 7830 4948 7f3f 3840 547c 5c54     Dl(.0xHI?.@8|TT\
    649e:	0018 7e48 497f 0203 3800 a4bc fca4 0078     ..H~.I...8....x.
    64ae:	7f41 087f 7c04 0078 7d44 407d 0000 e060     A....|x.D}}@..`.
    64be:	8080 7dfd 4100 7f7f 3810 446c 4100 7f7f     ...}.A...8lD.A..
    64ce:	0040 7800 1c7c 1c38 787c 7c7c 0404 787c     @..x|.8.|x||..|x
    64de:	3800 447c 7c44 0038 fc00 a4fc 3c24 1818     .8|DD|8.....$<..
    64ee:	243c f8a4 84fc 7c44 4c78 1c04 4818 545c     <$....D|xL...H\T
    64fe:	7454 0024 0400 7f3e 2444 3c00 407c 3c40     Tt$...>.D$.<|@@<
    650e:	407c 3c1c 6060 1c3c 3c00 707c 7038 3c7c     |@.<``<..<|p8p|<
    651e:	6c44 1038 6c38 3c44 a0bc fca0 007c 644c     Dl8.8lD<....|.Ld
    652e:	5c74 644c 0800 3e08 4177 0041 0000 7700     t\Ld...>wAA....w
    653e:	0077 4100 7741 083e 0008 0302 0301 0302     w..AAw>.........
    654e:	ff01 8181 8181 ff81 9f0e b191 4afb 0000     .............J..
	...

00006560 <Font_7x8>:
    6560:	0807 8020 62b6 0000 0000 0000 0000 0000     .. ..b..........

00006570 <CSWTCH.23>:
    6570:	8000 5000 8000 5001 8000 5002 8000 5003     ...P...P...P...P

00006580 <CSWTCH.26>:
    6580:	3ffc 5000 3ffc 5001 3ffc 5002 3ffc 5003     .?.P.?.P.?.P.?.P
    6590:	3072 656b 2074 6144 6174 6c46 7361 2068     r0ket DataFlash 
    65a0:	2020 2020 2020 2020 2020 2020 0400                           .

000065ad <USB_MSCStringDescriptor>:
    65ad:	0304 0409 031c 0043 0043 0043 0020 0020     ......C.C.C. . .
    65bd:	0020 0020 0020 0020 0020 0020 0020 0020      . . . . . . . .
    65cd:	0328 0072 0030 006b 0065 0074 0020 0020     (.r.0.k.e.t. . .
    65dd:	0020 0020 0020 0020 0020 0020 0020 0020      . . . . . . . .
    65ed:	0020 0020 0020 0020 031a 0030 0030 0030      . . . ...0.0.0.
    65fd:	0030 0030 0030 0030 0030 0030 0030 0030     0.0.0.0.0.0.0.0.
    660d:	0030 030e 004d 0065 006d 006f 0072 0079     0...M.e.m.o.r.y.
